; ModuleID = 'D:/NTHU/HLS/FINAL/CHANNEL_KBEST/MIMO/solution1/.autopilot/db/a.g.ld.5.gdce.bc'
source_filename = "llvm-link"
target datalayout = "e-m:e-i64:64-i128:128-i256:256-i512:512-i1024:1024-i2048:2048-i4096:4096-n8:16:32:64-S128-v16:16-v24:32-v32:32-v48:64-v96:128-v192:256-v256:256-v512:512-v1024:1024"
target triple = "fpga64-xilinx-none"

%"struct.ap_fixed<16, 8, AP_TRN, AP_WRAP, 0>" = type { %"struct.ap_fixed_base<16, 8, true, AP_TRN, AP_WRAP, 0>" }
%"struct.ap_fixed_base<16, 8, true, AP_TRN, AP_WRAP, 0>" = type { %"struct.ssdm_int<16, true>" }
%"struct.ssdm_int<16, true>" = type { i16 }

; Function Attrs: inaccessiblememonly nounwind
declare void @llvm.sideeffect() #0

; Function Attrs: noinline
define void @apatb_TOP_ir(%"struct.ap_fixed<16, 8, AP_TRN, AP_WRAP, 0>"* %xxr, %"struct.ap_fixed<16, 8, AP_TRN, AP_WRAP, 0>"* %xxi, %"struct.ap_fixed<16, 8, AP_TRN, AP_WRAP, 0>"* %out, [8 x %"struct.ap_fixed<16, 8, AP_TRN, AP_WRAP, 0>"]* %Y) local_unnamed_addr #1 {
entry:
  %xxr_copy = alloca [4 x i16], align 512
  %xxi_copy = alloca [4 x i16], align 512
  %out_copy = alloca [8 x i16], align 512
  %Y_copy_0 = alloca [8 x i16], align 512
  %Y_copy_1 = alloca [8 x i16], align 512
  %Y_copy_2 = alloca [8 x i16], align 512
  %Y_copy_3 = alloca [8 x i16], align 512
  %Y_copy_4 = alloca [8 x i16], align 512
  %Y_copy_5 = alloca [8 x i16], align 512
  %Y_copy_6 = alloca [8 x i16], align 512
  %Y_copy_7 = alloca [8 x i16], align 512
  %0 = bitcast %"struct.ap_fixed<16, 8, AP_TRN, AP_WRAP, 0>"* %xxr to [4 x %"struct.ap_fixed<16, 8, AP_TRN, AP_WRAP, 0>"]*
  %1 = bitcast %"struct.ap_fixed<16, 8, AP_TRN, AP_WRAP, 0>"* %xxi to [4 x %"struct.ap_fixed<16, 8, AP_TRN, AP_WRAP, 0>"]*
  %2 = bitcast %"struct.ap_fixed<16, 8, AP_TRN, AP_WRAP, 0>"* %out to [8 x %"struct.ap_fixed<16, 8, AP_TRN, AP_WRAP, 0>"]*
  %3 = bitcast [8 x %"struct.ap_fixed<16, 8, AP_TRN, AP_WRAP, 0>"]* %Y to [8 x [8 x %"struct.ap_fixed<16, 8, AP_TRN, AP_WRAP, 0>"]]*
  call void @copy_in([4 x %"struct.ap_fixed<16, 8, AP_TRN, AP_WRAP, 0>"]* %0, [4 x i16]* nonnull align 512 %xxr_copy, [4 x %"struct.ap_fixed<16, 8, AP_TRN, AP_WRAP, 0>"]* %1, [4 x i16]* nonnull align 512 %xxi_copy, [8 x %"struct.ap_fixed<16, 8, AP_TRN, AP_WRAP, 0>"]* %2, [8 x i16]* nonnull align 512 %out_copy, [8 x [8 x %"struct.ap_fixed<16, 8, AP_TRN, AP_WRAP, 0>"]]* %3, [8 x i16]* nonnull align 512 %Y_copy_0, [8 x i16]* nonnull align 512 %Y_copy_1, [8 x i16]* nonnull align 512 %Y_copy_2, [8 x i16]* nonnull align 512 %Y_copy_3, [8 x i16]* nonnull align 512 %Y_copy_4, [8 x i16]* nonnull align 512 %Y_copy_5, [8 x i16]* nonnull align 512 %Y_copy_6, [8 x i16]* nonnull align 512 %Y_copy_7)
  %4 = getelementptr [4 x i16], [4 x i16]* %xxr_copy, i32 0, i32 0
  %5 = getelementptr [4 x i16], [4 x i16]* %xxi_copy, i32 0, i32 0
  %6 = getelementptr [8 x i16], [8 x i16]* %out_copy, i32 0, i32 0
  call void @llvm.sideeffect() #0 [ "xlx_array_partition"([8 x i16]* %Y_copy_0, i32 0, i32 1, i32 0, i1 false) ], !dbg !5
  call void @llvm.sideeffect() #0 [ "xlx_array_partition"([8 x i16]* %Y_copy_1, i32 0, i32 1, i32 0, i1 false) ], !dbg !5
  call void @llvm.sideeffect() #0 [ "xlx_array_partition"([8 x i16]* %Y_copy_2, i32 0, i32 1, i32 0, i1 false) ], !dbg !5
  call void @llvm.sideeffect() #0 [ "xlx_array_partition"([8 x i16]* %Y_copy_3, i32 0, i32 1, i32 0, i1 false) ], !dbg !5
  call void @llvm.sideeffect() #0 [ "xlx_array_partition"([8 x i16]* %Y_copy_4, i32 0, i32 1, i32 0, i1 false) ], !dbg !5
  call void @llvm.sideeffect() #0 [ "xlx_array_partition"([8 x i16]* %Y_copy_5, i32 0, i32 1, i32 0, i1 false) ], !dbg !5
  call void @llvm.sideeffect() #0 [ "xlx_array_partition"([8 x i16]* %Y_copy_6, i32 0, i32 1, i32 0, i1 false) ], !dbg !5
  call void @llvm.sideeffect() #0 [ "xlx_array_partition"([8 x i16]* %Y_copy_7, i32 0, i32 1, i32 0, i1 false) ], !dbg !5
  call void @apatb_TOP_hw(i16* %4, i16* %5, i16* %6, [8 x i16]* %Y_copy_0, [8 x i16]* %Y_copy_1, [8 x i16]* %Y_copy_2, [8 x i16]* %Y_copy_3, [8 x i16]* %Y_copy_4, [8 x i16]* %Y_copy_5, [8 x i16]* %Y_copy_6, [8 x i16]* %Y_copy_7)
  call void @copy_out([4 x %"struct.ap_fixed<16, 8, AP_TRN, AP_WRAP, 0>"]* %0, [4 x i16]* nonnull align 512 %xxr_copy, [4 x %"struct.ap_fixed<16, 8, AP_TRN, AP_WRAP, 0>"]* %1, [4 x i16]* nonnull align 512 %xxi_copy, [8 x %"struct.ap_fixed<16, 8, AP_TRN, AP_WRAP, 0>"]* %2, [8 x i16]* nonnull align 512 %out_copy, [8 x [8 x %"struct.ap_fixed<16, 8, AP_TRN, AP_WRAP, 0>"]]* %3, [8 x i16]* nonnull align 512 %Y_copy_0, [8 x i16]* nonnull align 512 %Y_copy_1, [8 x i16]* nonnull align 512 %Y_copy_2, [8 x i16]* nonnull align 512 %Y_copy_3, [8 x i16]* nonnull align 512 %Y_copy_4, [8 x i16]* nonnull align 512 %Y_copy_5, [8 x i16]* nonnull align 512 %Y_copy_6, [8 x i16]* nonnull align 512 %Y_copy_7)
  ret void
}

; Function Attrs: argmemonly noinline norecurse
define internal fastcc void @"onebyonecpy_hls.p0a8struct.ap_fixed<16, 8, AP_TRN, AP_WRAP, 0>"([8 x i16]* noalias align 512, [8 x %"struct.ap_fixed<16, 8, AP_TRN, AP_WRAP, 0>"]* noalias readonly) unnamed_addr #2 {
entry:
  %2 = icmp eq [8 x i16]* %0, null
  %3 = icmp eq [8 x %"struct.ap_fixed<16, 8, AP_TRN, AP_WRAP, 0>"]* %1, null
  %4 = or i1 %2, %3
  br i1 %4, label %ret, label %copy

copy:                                             ; preds = %entry
  br label %for.loop

for.loop:                                         ; preds = %for.loop, %copy
  %for.loop.idx7 = phi i64 [ 0, %copy ], [ %for.loop.idx.next, %for.loop ]
  %src.addr.0.0.05 = getelementptr [8 x %"struct.ap_fixed<16, 8, AP_TRN, AP_WRAP, 0>"], [8 x %"struct.ap_fixed<16, 8, AP_TRN, AP_WRAP, 0>"]* %1, i64 0, i64 %for.loop.idx7, i32 0, i32 0, i32 0
  %5 = getelementptr [8 x i16], [8 x i16]* %0, i64 0, i64 %for.loop.idx7
  %6 = load i16, i16* %src.addr.0.0.05, align 2
  store i16 %6, i16* %5, align 2
  %for.loop.idx.next = add nuw nsw i64 %for.loop.idx7, 1
  %exitcond = icmp ne i64 %for.loop.idx.next, 8
  br i1 %exitcond, label %for.loop, label %ret

ret:                                              ; preds = %for.loop, %entry
  ret void
}

; Function Attrs: argmemonly noinline norecurse
define internal void @"onebyonecpy_hls.p0a8a8struct.ap_fixed<16, 8, AP_TRN, AP_WRAP, 0>.750.751"([8 x i16]* noalias align 512 "fpga.caller.interfaces"="layout_transformed" "orig.arg.no"="0" %_0, [8 x i16]* noalias align 512 "fpga.caller.interfaces"="layout_transformed" "orig.arg.no"="0" %_1, [8 x i16]* noalias align 512 "fpga.caller.interfaces"="layout_transformed" "orig.arg.no"="0" %_2, [8 x i16]* noalias align 512 "fpga.caller.interfaces"="layout_transformed" "orig.arg.no"="0" %_3, [8 x i16]* noalias align 512 "fpga.caller.interfaces"="layout_transformed" "orig.arg.no"="0" %_4, [8 x i16]* noalias align 512 "fpga.caller.interfaces"="layout_transformed" "orig.arg.no"="0" %_5, [8 x i16]* noalias align 512 "fpga.caller.interfaces"="layout_transformed" "orig.arg.no"="0" %_6, [8 x i16]* noalias align 512 "fpga.caller.interfaces"="layout_transformed" "orig.arg.no"="0" %_7, [8 x [8 x %"struct.ap_fixed<16, 8, AP_TRN, AP_WRAP, 0>"]]* noalias readonly "fpga.caller.interfaces"="layout_transformed" "orig.arg.no"="1") #2 {
entry:
  %1 = icmp eq [8 x i16]* %_0, null
  %2 = icmp eq [8 x [8 x %"struct.ap_fixed<16, 8, AP_TRN, AP_WRAP, 0>"]]* %0, null
  %3 = or i1 %1, %2
  br i1 %3, label %ret, label %copy

copy:                                             ; preds = %entry
  br label %for.loop

for.loop:                                         ; preds = %for.loop.split, %copy
  %for.loop.idx16 = phi i64 [ 0, %copy ], [ %for.loop.idx.next, %for.loop.split ]
  %4 = trunc i64 %for.loop.idx16 to i3
  br label %for.loop2

for.loop2:                                        ; preds = %dst.addr5.0.0.014.exit, %for.loop
  %for.loop.idx315 = phi i64 [ 0, %for.loop ], [ %for.loop.idx3.next, %dst.addr5.0.0.014.exit ]
  %src.addr6.0.0.013 = getelementptr [8 x [8 x %"struct.ap_fixed<16, 8, AP_TRN, AP_WRAP, 0>"]], [8 x [8 x %"struct.ap_fixed<16, 8, AP_TRN, AP_WRAP, 0>"]]* %0, i64 0, i64 %for.loop.idx16, i64 %for.loop.idx315, i32 0, i32 0, i32 0
  %5 = getelementptr [8 x i16], [8 x i16]* %_0, i64 0, i64 %for.loop.idx315
  %6 = getelementptr [8 x i16], [8 x i16]* %_1, i64 0, i64 %for.loop.idx315
  %7 = getelementptr [8 x i16], [8 x i16]* %_2, i64 0, i64 %for.loop.idx315
  %8 = getelementptr [8 x i16], [8 x i16]* %_3, i64 0, i64 %for.loop.idx315
  %9 = getelementptr [8 x i16], [8 x i16]* %_4, i64 0, i64 %for.loop.idx315
  %10 = getelementptr [8 x i16], [8 x i16]* %_5, i64 0, i64 %for.loop.idx315
  %11 = getelementptr [8 x i16], [8 x i16]* %_6, i64 0, i64 %for.loop.idx315
  %12 = getelementptr [8 x i16], [8 x i16]* %_7, i64 0, i64 %for.loop.idx315
  %13 = load i16, i16* %src.addr6.0.0.013, align 2
  switch i3 %4, label %dst.addr5.0.0.014.case.7 [
    i3 0, label %dst.addr5.0.0.014.case.0
    i3 1, label %dst.addr5.0.0.014.case.1
    i3 2, label %dst.addr5.0.0.014.case.2
    i3 3, label %dst.addr5.0.0.014.case.3
    i3 -4, label %dst.addr5.0.0.014.case.4
    i3 -3, label %dst.addr5.0.0.014.case.5
    i3 -2, label %dst.addr5.0.0.014.case.6
  ]

dst.addr5.0.0.014.case.0:                         ; preds = %for.loop2
  store i16 %13, i16* %5, align 2
  br label %dst.addr5.0.0.014.exit

dst.addr5.0.0.014.case.1:                         ; preds = %for.loop2
  store i16 %13, i16* %6, align 2
  br label %dst.addr5.0.0.014.exit

dst.addr5.0.0.014.case.2:                         ; preds = %for.loop2
  store i16 %13, i16* %7, align 2
  br label %dst.addr5.0.0.014.exit

dst.addr5.0.0.014.case.3:                         ; preds = %for.loop2
  store i16 %13, i16* %8, align 2
  br label %dst.addr5.0.0.014.exit

dst.addr5.0.0.014.case.4:                         ; preds = %for.loop2
  store i16 %13, i16* %9, align 2
  br label %dst.addr5.0.0.014.exit

dst.addr5.0.0.014.case.5:                         ; preds = %for.loop2
  store i16 %13, i16* %10, align 2
  br label %dst.addr5.0.0.014.exit

dst.addr5.0.0.014.case.6:                         ; preds = %for.loop2
  store i16 %13, i16* %11, align 2
  br label %dst.addr5.0.0.014.exit

dst.addr5.0.0.014.case.7:                         ; preds = %for.loop2
  store i16 %13, i16* %12, align 2
  br label %dst.addr5.0.0.014.exit

dst.addr5.0.0.014.exit:                           ; preds = %dst.addr5.0.0.014.case.7, %dst.addr5.0.0.014.case.6, %dst.addr5.0.0.014.case.5, %dst.addr5.0.0.014.case.4, %dst.addr5.0.0.014.case.3, %dst.addr5.0.0.014.case.2, %dst.addr5.0.0.014.case.1, %dst.addr5.0.0.014.case.0
  %for.loop.idx3.next = add nuw nsw i64 %for.loop.idx315, 1
  %exitcond = icmp ne i64 %for.loop.idx3.next, 8
  br i1 %exitcond, label %for.loop2, label %for.loop.split

for.loop.split:                                   ; preds = %dst.addr5.0.0.014.exit
  %for.loop.idx.next = add nuw nsw i64 %for.loop.idx16, 1
  %exitcond17 = icmp ne i64 %for.loop.idx.next, 8
  br i1 %exitcond17, label %for.loop, label %ret

ret:                                              ; preds = %for.loop.split, %entry
  ret void
}

; Function Attrs: argmemonly noinline norecurse
define internal void @copy_in([4 x %"struct.ap_fixed<16, 8, AP_TRN, AP_WRAP, 0>"]* readonly "orig.arg.no"="0", [4 x i16]* noalias align 512 "orig.arg.no"="1", [4 x %"struct.ap_fixed<16, 8, AP_TRN, AP_WRAP, 0>"]* readonly "orig.arg.no"="2", [4 x i16]* noalias align 512 "orig.arg.no"="3", [8 x %"struct.ap_fixed<16, 8, AP_TRN, AP_WRAP, 0>"]* readonly "orig.arg.no"="4", [8 x i16]* noalias align 512 "orig.arg.no"="5", [8 x [8 x %"struct.ap_fixed<16, 8, AP_TRN, AP_WRAP, 0>"]]* readonly "orig.arg.no"="6", [8 x i16]* noalias align 512 "fpga.caller.interfaces"="layout_transformed" "orig.arg.no"="7" %_0, [8 x i16]* noalias align 512 "fpga.caller.interfaces"="layout_transformed" "orig.arg.no"="7" %_1, [8 x i16]* noalias align 512 "fpga.caller.interfaces"="layout_transformed" "orig.arg.no"="7" %_2, [8 x i16]* noalias align 512 "fpga.caller.interfaces"="layout_transformed" "orig.arg.no"="7" %_3, [8 x i16]* noalias align 512 "fpga.caller.interfaces"="layout_transformed" "orig.arg.no"="7" %_4, [8 x i16]* noalias align 512 "fpga.caller.interfaces"="layout_transformed" "orig.arg.no"="7" %_5, [8 x i16]* noalias align 512 "fpga.caller.interfaces"="layout_transformed" "orig.arg.no"="7" %_6, [8 x i16]* noalias align 512 "fpga.caller.interfaces"="layout_transformed" "orig.arg.no"="7" %_7) #3 {
entry:
  call fastcc void @"onebyonecpy_hls.p0a4struct.ap_fixed<16, 8, AP_TRN, AP_WRAP, 0>"([4 x i16]* align 512 %1, [4 x %"struct.ap_fixed<16, 8, AP_TRN, AP_WRAP, 0>"]* %0)
  call fastcc void @"onebyonecpy_hls.p0a4struct.ap_fixed<16, 8, AP_TRN, AP_WRAP, 0>"([4 x i16]* align 512 %3, [4 x %"struct.ap_fixed<16, 8, AP_TRN, AP_WRAP, 0>"]* %2)
  call fastcc void @"onebyonecpy_hls.p0a8struct.ap_fixed<16, 8, AP_TRN, AP_WRAP, 0>"([8 x i16]* align 512 %5, [8 x %"struct.ap_fixed<16, 8, AP_TRN, AP_WRAP, 0>"]* %4)
  call void @"onebyonecpy_hls.p0a8a8struct.ap_fixed<16, 8, AP_TRN, AP_WRAP, 0>.750.751"([8 x i16]* align 512 %_0, [8 x i16]* align 512 %_1, [8 x i16]* align 512 %_2, [8 x i16]* align 512 %_3, [8 x i16]* align 512 %_4, [8 x i16]* align 512 %_5, [8 x i16]* align 512 %_6, [8 x i16]* align 512 %_7, [8 x [8 x %"struct.ap_fixed<16, 8, AP_TRN, AP_WRAP, 0>"]]* %6)
  ret void
}

; Function Attrs: argmemonly noinline norecurse
define internal void @"onebyonecpy_hls.p0a8a8struct.ap_fixed<16, 8, AP_TRN, AP_WRAP, 0>.758.759"([8 x [8 x %"struct.ap_fixed<16, 8, AP_TRN, AP_WRAP, 0>"]]* noalias "fpga.caller.interfaces"="layout_transformed" "orig.arg.no"="0", [8 x i16]* noalias readonly align 512 "fpga.caller.interfaces"="layout_transformed" "orig.arg.no"="1" %_0, [8 x i16]* noalias readonly align 512 "fpga.caller.interfaces"="layout_transformed" "orig.arg.no"="1" %_1, [8 x i16]* noalias readonly align 512 "fpga.caller.interfaces"="layout_transformed" "orig.arg.no"="1" %_2, [8 x i16]* noalias readonly align 512 "fpga.caller.interfaces"="layout_transformed" "orig.arg.no"="1" %_3, [8 x i16]* noalias readonly align 512 "fpga.caller.interfaces"="layout_transformed" "orig.arg.no"="1" %_4, [8 x i16]* noalias readonly align 512 "fpga.caller.interfaces"="layout_transformed" "orig.arg.no"="1" %_5, [8 x i16]* noalias readonly align 512 "fpga.caller.interfaces"="layout_transformed" "orig.arg.no"="1" %_6, [8 x i16]* noalias readonly align 512 "fpga.caller.interfaces"="layout_transformed" "orig.arg.no"="1" %_7) #2 {
entry:
  %1 = icmp eq [8 x [8 x %"struct.ap_fixed<16, 8, AP_TRN, AP_WRAP, 0>"]]* %0, null
  %2 = icmp eq [8 x i16]* %_0, null
  %3 = or i1 %1, %2
  br i1 %3, label %ret, label %copy

copy:                                             ; preds = %entry
  br label %for.loop

for.loop:                                         ; preds = %for.loop.split, %copy
  %for.loop.idx16 = phi i64 [ 0, %copy ], [ %for.loop.idx.next, %for.loop.split ]
  %4 = trunc i64 %for.loop.idx16 to i3
  br label %for.loop2

for.loop2:                                        ; preds = %src.addr6.0.0.013.exit, %for.loop
  %for.loop.idx315 = phi i64 [ 0, %for.loop ], [ %for.loop.idx3.next, %src.addr6.0.0.013.exit ]
  %5 = getelementptr [8 x i16], [8 x i16]* %_0, i64 0, i64 %for.loop.idx315
  %6 = getelementptr [8 x i16], [8 x i16]* %_1, i64 0, i64 %for.loop.idx315
  %7 = getelementptr [8 x i16], [8 x i16]* %_2, i64 0, i64 %for.loop.idx315
  %8 = getelementptr [8 x i16], [8 x i16]* %_3, i64 0, i64 %for.loop.idx315
  %9 = getelementptr [8 x i16], [8 x i16]* %_4, i64 0, i64 %for.loop.idx315
  %10 = getelementptr [8 x i16], [8 x i16]* %_5, i64 0, i64 %for.loop.idx315
  %11 = getelementptr [8 x i16], [8 x i16]* %_6, i64 0, i64 %for.loop.idx315
  %12 = getelementptr [8 x i16], [8 x i16]* %_7, i64 0, i64 %for.loop.idx315
  %dst.addr5.0.0.014 = getelementptr [8 x [8 x %"struct.ap_fixed<16, 8, AP_TRN, AP_WRAP, 0>"]], [8 x [8 x %"struct.ap_fixed<16, 8, AP_TRN, AP_WRAP, 0>"]]* %0, i64 0, i64 %for.loop.idx16, i64 %for.loop.idx315, i32 0, i32 0, i32 0
  switch i3 %4, label %src.addr6.0.0.013.case.7 [
    i3 0, label %src.addr6.0.0.013.case.0
    i3 1, label %src.addr6.0.0.013.case.1
    i3 2, label %src.addr6.0.0.013.case.2
    i3 3, label %src.addr6.0.0.013.case.3
    i3 -4, label %src.addr6.0.0.013.case.4
    i3 -3, label %src.addr6.0.0.013.case.5
    i3 -2, label %src.addr6.0.0.013.case.6
  ]

src.addr6.0.0.013.case.0:                         ; preds = %for.loop2
  %13 = load i16, i16* %5, align 2
  br label %src.addr6.0.0.013.exit

src.addr6.0.0.013.case.1:                         ; preds = %for.loop2
  %14 = load i16, i16* %6, align 2
  br label %src.addr6.0.0.013.exit

src.addr6.0.0.013.case.2:                         ; preds = %for.loop2
  %15 = load i16, i16* %7, align 2
  br label %src.addr6.0.0.013.exit

src.addr6.0.0.013.case.3:                         ; preds = %for.loop2
  %16 = load i16, i16* %8, align 2
  br label %src.addr6.0.0.013.exit

src.addr6.0.0.013.case.4:                         ; preds = %for.loop2
  %17 = load i16, i16* %9, align 2
  br label %src.addr6.0.0.013.exit

src.addr6.0.0.013.case.5:                         ; preds = %for.loop2
  %18 = load i16, i16* %10, align 2
  br label %src.addr6.0.0.013.exit

src.addr6.0.0.013.case.6:                         ; preds = %for.loop2
  %19 = load i16, i16* %11, align 2
  br label %src.addr6.0.0.013.exit

src.addr6.0.0.013.case.7:                         ; preds = %for.loop2
  %20 = load i16, i16* %12, align 2
  br label %src.addr6.0.0.013.exit

src.addr6.0.0.013.exit:                           ; preds = %src.addr6.0.0.013.case.7, %src.addr6.0.0.013.case.6, %src.addr6.0.0.013.case.5, %src.addr6.0.0.013.case.4, %src.addr6.0.0.013.case.3, %src.addr6.0.0.013.case.2, %src.addr6.0.0.013.case.1, %src.addr6.0.0.013.case.0
  %21 = phi i16 [ %13, %src.addr6.0.0.013.case.0 ], [ %14, %src.addr6.0.0.013.case.1 ], [ %15, %src.addr6.0.0.013.case.2 ], [ %16, %src.addr6.0.0.013.case.3 ], [ %17, %src.addr6.0.0.013.case.4 ], [ %18, %src.addr6.0.0.013.case.5 ], [ %19, %src.addr6.0.0.013.case.6 ], [ %20, %src.addr6.0.0.013.case.7 ]
  store i16 %21, i16* %dst.addr5.0.0.014, align 2
  %for.loop.idx3.next = add nuw nsw i64 %for.loop.idx315, 1
  %exitcond = icmp ne i64 %for.loop.idx3.next, 8
  br i1 %exitcond, label %for.loop2, label %for.loop.split

for.loop.split:                                   ; preds = %src.addr6.0.0.013.exit
  %for.loop.idx.next = add nuw nsw i64 %for.loop.idx16, 1
  %exitcond17 = icmp ne i64 %for.loop.idx.next, 8
  br i1 %exitcond17, label %for.loop, label %ret

ret:                                              ; preds = %for.loop.split, %entry
  ret void
}

; Function Attrs: argmemonly noinline norecurse
define internal void @copy_out([4 x %"struct.ap_fixed<16, 8, AP_TRN, AP_WRAP, 0>"]* "orig.arg.no"="0", [4 x i16]* noalias readonly align 512 "orig.arg.no"="1", [4 x %"struct.ap_fixed<16, 8, AP_TRN, AP_WRAP, 0>"]* "orig.arg.no"="2", [4 x i16]* noalias readonly align 512 "orig.arg.no"="3", [8 x %"struct.ap_fixed<16, 8, AP_TRN, AP_WRAP, 0>"]* "orig.arg.no"="4", [8 x i16]* noalias readonly align 512 "orig.arg.no"="5", [8 x [8 x %"struct.ap_fixed<16, 8, AP_TRN, AP_WRAP, 0>"]]* "orig.arg.no"="6", [8 x i16]* noalias readonly align 512 "fpga.caller.interfaces"="layout_transformed" "orig.arg.no"="7" %_0, [8 x i16]* noalias readonly align 512 "fpga.caller.interfaces"="layout_transformed" "orig.arg.no"="7" %_1, [8 x i16]* noalias readonly align 512 "fpga.caller.interfaces"="layout_transformed" "orig.arg.no"="7" %_2, [8 x i16]* noalias readonly align 512 "fpga.caller.interfaces"="layout_transformed" "orig.arg.no"="7" %_3, [8 x i16]* noalias readonly align 512 "fpga.caller.interfaces"="layout_transformed" "orig.arg.no"="7" %_4, [8 x i16]* noalias readonly align 512 "fpga.caller.interfaces"="layout_transformed" "orig.arg.no"="7" %_5, [8 x i16]* noalias readonly align 512 "fpga.caller.interfaces"="layout_transformed" "orig.arg.no"="7" %_6, [8 x i16]* noalias readonly align 512 "fpga.caller.interfaces"="layout_transformed" "orig.arg.no"="7" %_7) #4 {
entry:
  call fastcc void @"onebyonecpy_hls.p0a4struct.ap_fixed<16, 8, AP_TRN, AP_WRAP, 0>.824"([4 x %"struct.ap_fixed<16, 8, AP_TRN, AP_WRAP, 0>"]* %0, [4 x i16]* align 512 %1)
  call fastcc void @"onebyonecpy_hls.p0a4struct.ap_fixed<16, 8, AP_TRN, AP_WRAP, 0>.824"([4 x %"struct.ap_fixed<16, 8, AP_TRN, AP_WRAP, 0>"]* %2, [4 x i16]* align 512 %3)
  call fastcc void @"onebyonecpy_hls.p0a8struct.ap_fixed<16, 8, AP_TRN, AP_WRAP, 0>.812"([8 x %"struct.ap_fixed<16, 8, AP_TRN, AP_WRAP, 0>"]* %4, [8 x i16]* align 512 %5)
  call void @"onebyonecpy_hls.p0a8a8struct.ap_fixed<16, 8, AP_TRN, AP_WRAP, 0>.758.759"([8 x [8 x %"struct.ap_fixed<16, 8, AP_TRN, AP_WRAP, 0>"]]* %6, [8 x i16]* align 512 %_0, [8 x i16]* align 512 %_1, [8 x i16]* align 512 %_2, [8 x i16]* align 512 %_3, [8 x i16]* align 512 %_4, [8 x i16]* align 512 %_5, [8 x i16]* align 512 %_6, [8 x i16]* align 512 %_7)
  ret void
}

; Function Attrs: argmemonly noinline norecurse
define internal fastcc void @"onebyonecpy_hls.p0a8struct.ap_fixed<16, 8, AP_TRN, AP_WRAP, 0>.812"([8 x %"struct.ap_fixed<16, 8, AP_TRN, AP_WRAP, 0>"]* noalias, [8 x i16]* noalias readonly align 512) unnamed_addr #2 {
entry:
  %2 = icmp eq [8 x %"struct.ap_fixed<16, 8, AP_TRN, AP_WRAP, 0>"]* %0, null
  %3 = icmp eq [8 x i16]* %1, null
  %4 = or i1 %2, %3
  br i1 %4, label %ret, label %copy

copy:                                             ; preds = %entry
  br label %for.loop

for.loop:                                         ; preds = %for.loop, %copy
  %for.loop.idx7 = phi i64 [ 0, %copy ], [ %for.loop.idx.next, %for.loop ]
  %5 = getelementptr [8 x i16], [8 x i16]* %1, i64 0, i64 %for.loop.idx7
  %dst.addr.0.0.06 = getelementptr [8 x %"struct.ap_fixed<16, 8, AP_TRN, AP_WRAP, 0>"], [8 x %"struct.ap_fixed<16, 8, AP_TRN, AP_WRAP, 0>"]* %0, i64 0, i64 %for.loop.idx7, i32 0, i32 0, i32 0
  %6 = load i16, i16* %5, align 2
  store i16 %6, i16* %dst.addr.0.0.06, align 2
  %for.loop.idx.next = add nuw nsw i64 %for.loop.idx7, 1
  %exitcond = icmp ne i64 %for.loop.idx.next, 8
  br i1 %exitcond, label %for.loop, label %ret

ret:                                              ; preds = %for.loop, %entry
  ret void
}

; Function Attrs: argmemonly noinline norecurse
define internal fastcc void @"onebyonecpy_hls.p0a4struct.ap_fixed<16, 8, AP_TRN, AP_WRAP, 0>"([4 x i16]* noalias align 512, [4 x %"struct.ap_fixed<16, 8, AP_TRN, AP_WRAP, 0>"]* noalias readonly) unnamed_addr #2 {
entry:
  %2 = icmp eq [4 x i16]* %0, null
  %3 = icmp eq [4 x %"struct.ap_fixed<16, 8, AP_TRN, AP_WRAP, 0>"]* %1, null
  %4 = or i1 %2, %3
  br i1 %4, label %ret, label %copy

copy:                                             ; preds = %entry
  br label %for.loop

for.loop:                                         ; preds = %for.loop, %copy
  %for.loop.idx7 = phi i64 [ 0, %copy ], [ %for.loop.idx.next, %for.loop ]
  %src.addr.0.0.05 = getelementptr [4 x %"struct.ap_fixed<16, 8, AP_TRN, AP_WRAP, 0>"], [4 x %"struct.ap_fixed<16, 8, AP_TRN, AP_WRAP, 0>"]* %1, i64 0, i64 %for.loop.idx7, i32 0, i32 0, i32 0
  %5 = getelementptr [4 x i16], [4 x i16]* %0, i64 0, i64 %for.loop.idx7
  %6 = load i16, i16* %src.addr.0.0.05, align 2
  store i16 %6, i16* %5, align 2
  %for.loop.idx.next = add nuw nsw i64 %for.loop.idx7, 1
  %exitcond = icmp ne i64 %for.loop.idx.next, 4
  br i1 %exitcond, label %for.loop, label %ret

ret:                                              ; preds = %for.loop, %entry
  ret void
}

; Function Attrs: argmemonly noinline norecurse
define internal fastcc void @"onebyonecpy_hls.p0a4struct.ap_fixed<16, 8, AP_TRN, AP_WRAP, 0>.824"([4 x %"struct.ap_fixed<16, 8, AP_TRN, AP_WRAP, 0>"]* noalias, [4 x i16]* noalias readonly align 512) unnamed_addr #2 {
entry:
  %2 = icmp eq [4 x %"struct.ap_fixed<16, 8, AP_TRN, AP_WRAP, 0>"]* %0, null
  %3 = icmp eq [4 x i16]* %1, null
  %4 = or i1 %2, %3
  br i1 %4, label %ret, label %copy

copy:                                             ; preds = %entry
  br label %for.loop

for.loop:                                         ; preds = %for.loop, %copy
  %for.loop.idx7 = phi i64 [ 0, %copy ], [ %for.loop.idx.next, %for.loop ]
  %5 = getelementptr [4 x i16], [4 x i16]* %1, i64 0, i64 %for.loop.idx7
  %dst.addr.0.0.06 = getelementptr [4 x %"struct.ap_fixed<16, 8, AP_TRN, AP_WRAP, 0>"], [4 x %"struct.ap_fixed<16, 8, AP_TRN, AP_WRAP, 0>"]* %0, i64 0, i64 %for.loop.idx7, i32 0, i32 0, i32 0
  %6 = load i16, i16* %5, align 2
  store i16 %6, i16* %dst.addr.0.0.06, align 2
  %for.loop.idx.next = add nuw nsw i64 %for.loop.idx7, 1
  %exitcond = icmp ne i64 %for.loop.idx.next, 4
  br i1 %exitcond, label %for.loop, label %ret

ret:                                              ; preds = %for.loop, %entry
  ret void
}

declare void @apatb_TOP_hw(i16*, i16*, i16*, [8 x i16]*, [8 x i16]*, [8 x i16]*, [8 x i16]*, [8 x i16]*, [8 x i16]*, [8 x i16]*, [8 x i16]*)

define void @TOP_hw_stub_wrapper(i16*, i16*, i16*, [8 x i16]*, [8 x i16]*, [8 x i16]*, [8 x i16]*, [8 x i16]*, [8 x i16]*, [8 x i16]*, [8 x i16]*) #5 {
entry:
  %11 = alloca [4 x %"struct.ap_fixed<16, 8, AP_TRN, AP_WRAP, 0>"]
  %12 = alloca [4 x %"struct.ap_fixed<16, 8, AP_TRN, AP_WRAP, 0>"]
  %13 = alloca [8 x %"struct.ap_fixed<16, 8, AP_TRN, AP_WRAP, 0>"]
  %14 = alloca [8 x [8 x %"struct.ap_fixed<16, 8, AP_TRN, AP_WRAP, 0>"]]
  %15 = bitcast i16* %0 to [4 x i16]*
  %16 = bitcast i16* %1 to [4 x i16]*
  %17 = bitcast i16* %2 to [8 x i16]*
  call void @copy_out([4 x %"struct.ap_fixed<16, 8, AP_TRN, AP_WRAP, 0>"]* %11, [4 x i16]* %15, [4 x %"struct.ap_fixed<16, 8, AP_TRN, AP_WRAP, 0>"]* %12, [4 x i16]* %16, [8 x %"struct.ap_fixed<16, 8, AP_TRN, AP_WRAP, 0>"]* %13, [8 x i16]* %17, [8 x [8 x %"struct.ap_fixed<16, 8, AP_TRN, AP_WRAP, 0>"]]* %14, [8 x i16]* %3, [8 x i16]* %4, [8 x i16]* %5, [8 x i16]* %6, [8 x i16]* %7, [8 x i16]* %8, [8 x i16]* %9, [8 x i16]* %10)
  %18 = bitcast [4 x %"struct.ap_fixed<16, 8, AP_TRN, AP_WRAP, 0>"]* %11 to %"struct.ap_fixed<16, 8, AP_TRN, AP_WRAP, 0>"*
  %19 = bitcast [4 x %"struct.ap_fixed<16, 8, AP_TRN, AP_WRAP, 0>"]* %12 to %"struct.ap_fixed<16, 8, AP_TRN, AP_WRAP, 0>"*
  %20 = bitcast [8 x %"struct.ap_fixed<16, 8, AP_TRN, AP_WRAP, 0>"]* %13 to %"struct.ap_fixed<16, 8, AP_TRN, AP_WRAP, 0>"*
  %21 = bitcast [8 x [8 x %"struct.ap_fixed<16, 8, AP_TRN, AP_WRAP, 0>"]]* %14 to [8 x %"struct.ap_fixed<16, 8, AP_TRN, AP_WRAP, 0>"]*
  call void @TOP_hw_stub(%"struct.ap_fixed<16, 8, AP_TRN, AP_WRAP, 0>"* %18, %"struct.ap_fixed<16, 8, AP_TRN, AP_WRAP, 0>"* %19, %"struct.ap_fixed<16, 8, AP_TRN, AP_WRAP, 0>"* %20, [8 x %"struct.ap_fixed<16, 8, AP_TRN, AP_WRAP, 0>"]* %21)
  call void @copy_in([4 x %"struct.ap_fixed<16, 8, AP_TRN, AP_WRAP, 0>"]* %11, [4 x i16]* %15, [4 x %"struct.ap_fixed<16, 8, AP_TRN, AP_WRAP, 0>"]* %12, [4 x i16]* %16, [8 x %"struct.ap_fixed<16, 8, AP_TRN, AP_WRAP, 0>"]* %13, [8 x i16]* %17, [8 x [8 x %"struct.ap_fixed<16, 8, AP_TRN, AP_WRAP, 0>"]]* %14, [8 x i16]* %3, [8 x i16]* %4, [8 x i16]* %5, [8 x i16]* %6, [8 x i16]* %7, [8 x i16]* %8, [8 x i16]* %9, [8 x i16]* %10)
  ret void
}

declare void @TOP_hw_stub(%"struct.ap_fixed<16, 8, AP_TRN, AP_WRAP, 0>"*, %"struct.ap_fixed<16, 8, AP_TRN, AP_WRAP, 0>"*, %"struct.ap_fixed<16, 8, AP_TRN, AP_WRAP, 0>"*, [8 x %"struct.ap_fixed<16, 8, AP_TRN, AP_WRAP, 0>"]*)

attributes #0 = { inaccessiblememonly nounwind }
attributes #1 = { noinline "fpga.wrapper.func"="wrapper" }
attributes #2 = { argmemonly noinline norecurse "fpga.wrapper.func"="onebyonecpy_hls" }
attributes #3 = { argmemonly noinline norecurse "fpga.wrapper.func"="copyin" }
attributes #4 = { argmemonly noinline norecurse "fpga.wrapper.func"="copyout" }
attributes #5 = { "fpga.wrapper.func"="stub" }

!llvm.dbg.cu = !{}
!llvm.ident = !{!0, !0, !0, !0, !0, !0, !0, !0, !0, !0, !0, !0, !0, !0, !0, !0, !0, !0, !0, !0, !0, !0, !0, !0, !0, !0, !0, !0, !0, !0, !0, !0, !0, !0, !0, !0, !0, !0, !0, !0, !0, !0, !0, !0, !0, !0, !0, !0, !0, !0, !0, !0, !0, !0, !0, !0, !0, !0, !0, !0, !0, !0, !0, !0, !0, !0, !0, !0, !0, !0, !0, !0, !0, !0, !0, !0, !0, !0, !0, !0, !0, !0, !0, !0, !0, !0, !0, !0, !0, !0, !0, !0, !0, !0, !0, !0, !0, !0, !0, !0, !0, !0, !0, !0, !0, !0, !0, !0, !0, !0, !0, !0, !0, !0, !0, !0, !0, !0, !0, !0, !0, !0, !0, !0, !0, !0, !0, !0, !0, !0, !0, !0, !0, !0, !0, !0, !0, !0, !0, !0, !0, !0, !0, !0, !0, !0, !0, !0, !0, !0, !0, !0, !0, !0, !0, !0, !0, !0, !0, !0, !0, !0, !0, !0, !0, !0, !0, !0, !0, !0, !0, !0, !0, !0, !0, !0, !0, !0, !0, !0, !0, !0, !0, !0, !0, !0, !0, !0, !0, !0, !0, !0, !0, !0, !0, !0, !0, !0, !0, !0, !0, !0, !0, !0, !0, !0, !0, !0, !0, !0, !0, !0, !0, !0, !0, !0, !0, !0, !0, !0, !0, !0, !0, !0, !0, !0, !0, !0, !0, !0, !0, !0, !0, !0, !0, !0, !0, !0, !0, !0, !0, !0, !0, !0, !0, !0, !0, !0, !0, !0, !0, !0, !0, !0, !0, !0, !0, !0, !0, !0, !0, !0, !0, !0, !0, !0, !0, !0, !0, !0, !0, !0, !0, !0, !0, !0, !0, !0, !0, !0, !0, !0, !0, !0, !0, !0, !0, !0, !0, !0, !0, !0, !0, !0, !0, !0, !0, !0, !0, !0, !0, !0, !0, !0, !0, !0, !0, !0, !0, !0, !0, !0, !0, !0, !0, !0, !0, !0, !0, !0, !0, !0, !0, !0, !0, !0, !0, !0, !0, !0, !0, !0, !0, !0, !0, !0, !0, !0, !0, !0, !0, !0, !0, !0, !0, !0, !0, !0, !0, !0, !0, !0, !0, !0, !0, !0, !0, !0, !0, !0, !0, !0, !0, !0, !0, !0, !0, !0, !0, !0, !0, !0, !0, !0, !0, !0, !0, !0, !0, !0, !0, !0, !0, !0, !0, !0, !0, !0, !0, !0, !0, !0, !0, !0, !0, !0, !0, !0, !0, !0, !0, !0, !0, !0, !0, !0, !0, !0, !0, !0, !0, !0, !0, !0, !0, !0, !0, !0, !0, !0, !0, !0, !0, !0, !0, !0, !0, !0, !0, !0, !0, !0, !0, !0, !0, !0, !0, !0, !0, !0, !0, !0, !0, !0, !0, !0, !0, !0, !0, !0, !0, !0, !0, !0, !0, !0, !0, !0, !0, !0, !0, !0, !0, !0, !0, !0, !0, !0, !0, !0, !0, !0, !0, !0, !0, !0, !0, !0, !0, !0, !0, !0, !0, !0, !0, !0, !0, !0, !0, !0, !0, !0, !0, !0, !0, !0, !0, !0, !0, !0, !0, !0, !0, !0, !0, !0, !0, !0, !0, !0, !0, !0, !0, !0, !0, !0, !0, !0, !0, !0, !0, !0, !0, !0, !0, !0, !0, !0, !0, !0, !0, !0, !0, !0, !0, !0, !0, !0, !0, !0, !0, !0, !0, !0, !0, !0, !0, !0, !0, !0, !0, !0, !0, !0, !0, !0, !0, !0, !0, !0, !0, !0, !0, !0, !0, !0, !0, !0, !0, !0, !0, !0, !0, !0, !0, !0, !0, !0, !0, !0, !0, !0, !0, !0, !0, !0, !0, !0}
!llvm.module.flags = !{!1, !2, !3}
!blackbox_cfg = !{!4}

!0 = !{!"clang version 7.0.0 "}
!1 = !{i32 2, !"Dwarf Version", i32 4}
!2 = !{i32 2, !"Debug Info Version", i32 3}
!3 = !{i32 1, !"wchar_size", i32 4}
!4 = !{}
!5 = !DILocation(line: 501, column: 2, scope: !6)
!6 = distinct !DISubprogram(name: "TOP", linkageName: "_Z3TOPP8ap_fixedILi16ELi8EL9ap_q_mode5EL9ap_o_mode3ELi0EES3_S3_PA8_S2_", scope: !7, file: !7, line: 446, type: !8, isLocal: false, isDefinition: true, scopeLine: 446, flags: DIFlagPrototyped, isOptimized: false, unit: !7540, variables: !4)
!7 = !DIFile(filename: "src/QRD.cpp", directory: "D:\5CNTHU\5CHLS\5CFINAL\5CCHANNEL_KBEST")
!8 = !DISubroutineType(types: !9)
!9 = !{null, !10, !10, !10, !7536}
!10 = !DIDerivedType(tag: DW_TAG_pointer_type, baseType: !11, size: 64)
!11 = !DIDerivedType(tag: DW_TAG_typedef, name: "FIXED_LEN", file: !12, line: 13, baseType: !13)
!12 = !DIFile(filename: "src/QRD.h", directory: "D:\5CNTHU\5CHLS\5CFINAL\5CCHANNEL_KBEST")
!13 = distinct !DICompositeType(tag: DW_TAG_structure_type, name: "ap_fixed<16, 8, AP_TRN, AP_WRAP, 0>", file: !14, line: 64, size: 16, flags: DIFlagTypePassByValue, elements: !15, templateParams: !7535, identifier: "_ZTS8ap_fixedILi16ELi8EL9ap_q_mode5EL9ap_o_mode3ELi0EE")
!14 = !DIFile(filename: "D:/Xilinx/Vitis_HLS/2021.2/common/technology/autopilot\5Cap_fixed.h", directory: "D:\5CNTHU\5CHLS\5CFINAL\5CCHANNEL_KBEST")
!15 = !{!16, !7458, !7462, !7465, !7468, !7471, !7474, !7477, !7480, !7483, !7486, !7489, !7492, !7495, !7498, !7501, !7504, !7507, !7510, !7513, !7516, !7522, !7527, !7532}
!16 = !DIDerivedType(tag: DW_TAG_inheritance, scope: !13, baseType: !17)
!17 = distinct !DICompositeType(tag: DW_TAG_structure_type, name: "ap_fixed_base<16, 8, true, AP_TRN, AP_WRAP, 0>", file: !18, line: 156, size: 16, flags: DIFlagTypePassByValue, elements: !19, templateParams: !7431, identifier: "_ZTS13ap_fixed_baseILi16ELi8ELb1EL9ap_q_mode5EL9ap_o_mode3ELi0EE")
!18 = !DIFile(filename: "D:/Xilinx/Vitis_HLS/2021.2/common/technology/autopilot\5Cap_fixed_base.h", directory: "D:\5CNTHU\5CHLS\5CFINAL\5CCHANNEL_KBEST")
!19 = !{!20, !35, !37, !38, !50, !59, !63, !66, !69, !74, !75, !81, !85, !89, !92, !96, !101, !105, !110, !113, !118, !123, !128, !134, !140, !144, !148, !153, !157, !160, !163, !4123, !4126, !4127, !4130, !4133, !4136, !4139, !4142, !4145, !4148, !4152, !4153, !4154, !4155, !4158, !4159, !4162, !4165, !4168, !4171, !4172, !4173, !4176, !4179, !4180, !4181, !4182, !4183, !4186, !4187, !4190, !4191, !4194, !6310, !6311, !6312, !6315, !6318, !6319, !6322, !6323, !6326, !6329, !6330, !6331, !6334, !6335, !6336, !6337, !6338, !6339, !6343, !6346, !6347, !6348, !6351, !7433, !7436, !7439, !7442, !7443, !7444, !7445, !7446, !7447, !7448, !7451, !7454, !7455}
!20 = !DIDerivedType(tag: DW_TAG_inheritance, scope: !17, baseType: !21)
!21 = distinct !DICompositeType(tag: DW_TAG_structure_type, name: "ssdm_int<16, true>", file: !22, line: 514, size: 16, flags: DIFlagTypePassByValue, elements: !23, templateParams: !30, identifier: "_ZTS8ssdm_intILi16ELb1EE")
!22 = !DIFile(filename: "D:/Xilinx/Vitis_HLS/2021.2/common/technology/autopilot\5Cap_common.h", directory: "D:\5CNTHU\5CHLS\5CFINAL\5CCHANNEL_KBEST")
!23 = !{!24, !26}
!24 = !DIDerivedType(tag: DW_TAG_member, name: "V", scope: !21, file: !22, line: 516, baseType: !25, size: 16)
!25 = !DIBasicType(name: "short", size: 16, encoding: DW_ATE_signed)
!26 = !DISubprogram(name: "ssdm_int", scope: !21, file: !22, line: 517, type: !27, isLocal: false, isDefinition: false, scopeLine: 517, flags: DIFlagPrototyped, isOptimized: false)
!27 = !DISubroutineType(types: !28)
!28 = !{null, !29}
!29 = !DIDerivedType(tag: DW_TAG_pointer_type, baseType: !21, size: 64, flags: DIFlagArtificial | DIFlagObjectPointer)
!30 = !{!31, !33}
!31 = !DITemplateValueParameter(name: "_AP_N", type: !32, value: i32 16)
!32 = !DIBasicType(name: "int", size: 32, encoding: DW_ATE_signed)
!33 = !DITemplateValueParameter(name: "_AP_S", type: !34, value: i8 1)
!34 = !DIBasicType(name: "bool", size: 8, encoding: DW_ATE_boolean)
!35 = !DIDerivedType(tag: DW_TAG_member, name: "width", scope: !17, file: !18, line: 159, baseType: !36, flags: DIFlagStaticMember, extraData: i32 16)
!36 = !DIDerivedType(tag: DW_TAG_const_type, baseType: !32)
!37 = !DIDerivedType(tag: DW_TAG_member, name: "iwidth", scope: !17, file: !18, line: 160, baseType: !36, flags: DIFlagStaticMember, extraData: i32 8)
!38 = !DIDerivedType(tag: DW_TAG_member, name: "qmode", scope: !17, file: !18, line: 161, baseType: !39, flags: DIFlagStaticMember, extraData: i32 5)
!39 = !DIDerivedType(tag: DW_TAG_const_type, baseType: !40)
!40 = distinct !DICompositeType(tag: DW_TAG_enumeration_type, name: "ap_q_mode", file: !41, line: 100, size: 32, elements: !42, identifier: "_ZTS9ap_q_mode")
!41 = !DIFile(filename: "D:/Xilinx/Vitis_HLS/2021.2/common/technology/autopilot\5Cap_decl.h", directory: "D:\5CNTHU\5CHLS\5CFINAL\5CCHANNEL_KBEST")
!42 = !{!43, !44, !45, !46, !47, !48, !49}
!43 = !DIEnumerator(name: "AP_RND", value: 0)
!44 = !DIEnumerator(name: "AP_RND_ZERO", value: 1)
!45 = !DIEnumerator(name: "AP_RND_MIN_INF", value: 2)
!46 = !DIEnumerator(name: "AP_RND_INF", value: 3)
!47 = !DIEnumerator(name: "AP_RND_CONV", value: 4)
!48 = !DIEnumerator(name: "AP_TRN", value: 5)
!49 = !DIEnumerator(name: "AP_TRN_ZERO", value: 6)
!50 = !DIDerivedType(tag: DW_TAG_member, name: "omode", scope: !17, file: !18, line: 162, baseType: !51, flags: DIFlagStaticMember, extraData: i32 3)
!51 = !DIDerivedType(tag: DW_TAG_const_type, baseType: !52)
!52 = distinct !DICompositeType(tag: DW_TAG_enumeration_type, name: "ap_o_mode", file: !41, line: 122, size: 32, elements: !53, identifier: "_ZTS9ap_o_mode")
!53 = !{!54, !55, !56, !57, !58}
!54 = !DIEnumerator(name: "AP_SAT", value: 0)
!55 = !DIEnumerator(name: "AP_SAT_ZERO", value: 1)
!56 = !DIEnumerator(name: "AP_SAT_SYM", value: 2)
!57 = !DIEnumerator(name: "AP_WRAP", value: 3)
!58 = !DIEnumerator(name: "AP_WRAP_SM", value: 4)
!59 = !DISubprogram(name: "report", linkageName: "_ZN13ap_fixed_baseILi16ELi8ELb1EL9ap_q_mode5EL9ap_o_mode3ELi0EE6reportEv", scope: !17, file: !18, line: 333, type: !60, isLocal: false, isDefinition: false, scopeLine: 333, flags: DIFlagPrivate | DIFlagPrototyped, isOptimized: false)
!60 = !DISubroutineType(types: !61)
!61 = !{null, !62}
!62 = !DIDerivedType(tag: DW_TAG_pointer_type, baseType: !17, size: 64, flags: DIFlagArtificial | DIFlagObjectPointer)
!63 = !DISubprogram(name: "overflow_adjust", linkageName: "_ZN13ap_fixed_baseILi16ELi8ELb1EL9ap_q_mode5EL9ap_o_mode3ELi0EE15overflow_adjustEbbbb", scope: !17, file: !18, line: 338, type: !64, isLocal: false, isDefinition: false, scopeLine: 338, flags: DIFlagPrivate | DIFlagPrototyped, isOptimized: false)
!64 = !DISubroutineType(types: !65)
!65 = !{null, !62, !34, !34, !34, !34}
!66 = !DISubprogram(name: "quantization_adjust", linkageName: "_ZN13ap_fixed_baseILi16ELi8ELb1EL9ap_q_mode5EL9ap_o_mode3ELi0EE19quantization_adjustEbbb", scope: !17, file: !18, line: 402, type: !67, isLocal: false, isDefinition: false, scopeLine: 402, flags: DIFlagPrivate | DIFlagPrototyped, isOptimized: false)
!67 = !DISubroutineType(types: !68)
!68 = !{!34, !62, !34, !34, !34}
!69 = !DISubprogram(name: "countLeadingOnes", linkageName: "_ZNK13ap_fixed_baseILi16ELi8ELb1EL9ap_q_mode5EL9ap_o_mode3ELi0EE16countLeadingOnesEv", scope: !17, file: !18, line: 420, type: !70, isLocal: false, isDefinition: false, scopeLine: 420, flags: DIFlagPrivate | DIFlagPrototyped, isOptimized: false)
!70 = !DISubroutineType(types: !71)
!71 = !{!32, !72}
!72 = !DIDerivedType(tag: DW_TAG_pointer_type, baseType: !73, size: 64, flags: DIFlagArtificial | DIFlagObjectPointer)
!73 = !DIDerivedType(tag: DW_TAG_const_type, baseType: !17)
!74 = !DISubprogram(name: "ap_fixed_base", scope: !17, file: !18, line: 433, type: !60, isLocal: false, isDefinition: false, scopeLine: 433, flags: DIFlagPrototyped, isOptimized: false)
!75 = !DISubprogram(name: "ap_fixed_base", scope: !17, file: !18, line: 486, type: !76, isLocal: false, isDefinition: false, scopeLine: 486, flags: DIFlagPrototyped, isOptimized: false)
!76 = !DISubroutineType(types: !77)
!77 = !{null, !62, !78}
!78 = !DIDerivedType(tag: DW_TAG_pointer_type, baseType: !79, size: 64)
!79 = !DIDerivedType(tag: DW_TAG_const_type, baseType: !80)
!80 = !DIBasicType(name: "char", size: 8, encoding: DW_ATE_signed_char)
!81 = !DISubprogram(name: "ap_fixed_base", scope: !17, file: !18, line: 492, type: !82, isLocal: false, isDefinition: false, scopeLine: 492, flags: DIFlagPrototyped, isOptimized: false)
!82 = !DISubroutineType(types: !83)
!83 = !{null, !62, !78, !84}
!84 = !DIBasicType(name: "signed char", size: 8, encoding: DW_ATE_signed_char)
!85 = !DISubprogram(name: "ap_fixed_base", scope: !17, file: !18, line: 544, type: !86, isLocal: false, isDefinition: false, scopeLine: 544, flags: DIFlagPrototyped, isOptimized: false)
!86 = !DISubroutineType(types: !87)
!87 = !{null, !62, !88}
!88 = !DIDerivedType(tag: DW_TAG_const_type, baseType: !34)
!89 = !DISubprogram(name: "ap_fixed_base", scope: !17, file: !18, line: 545, type: !90, isLocal: false, isDefinition: false, scopeLine: 545, flags: DIFlagPrototyped, isOptimized: false)
!90 = !DISubroutineType(types: !91)
!91 = !{null, !62, !79}
!92 = !DISubprogram(name: "ap_fixed_base", scope: !17, file: !18, line: 546, type: !93, isLocal: false, isDefinition: false, scopeLine: 546, flags: DIFlagPrototyped, isOptimized: false)
!93 = !DISubroutineType(types: !94)
!94 = !{null, !62, !95}
!95 = !DIDerivedType(tag: DW_TAG_const_type, baseType: !84)
!96 = !DISubprogram(name: "ap_fixed_base", scope: !17, file: !18, line: 547, type: !97, isLocal: false, isDefinition: false, scopeLine: 547, flags: DIFlagPrototyped, isOptimized: false)
!97 = !DISubroutineType(types: !98)
!98 = !{null, !62, !99}
!99 = !DIDerivedType(tag: DW_TAG_const_type, baseType: !100)
!100 = !DIBasicType(name: "unsigned char", size: 8, encoding: DW_ATE_unsigned_char)
!101 = !DISubprogram(name: "ap_fixed_base", scope: !17, file: !18, line: 548, type: !102, isLocal: false, isDefinition: false, scopeLine: 548, flags: DIFlagPrototyped, isOptimized: false)
!102 = !DISubroutineType(types: !103)
!103 = !{null, !62, !104}
!104 = !DIDerivedType(tag: DW_TAG_const_type, baseType: !25)
!105 = !DISubprogram(name: "ap_fixed_base", scope: !17, file: !18, line: 549, type: !106, isLocal: false, isDefinition: false, scopeLine: 549, flags: DIFlagPrototyped, isOptimized: false)
!106 = !DISubroutineType(types: !107)
!107 = !{null, !62, !108}
!108 = !DIDerivedType(tag: DW_TAG_const_type, baseType: !109)
!109 = !DIBasicType(name: "unsigned short", size: 16, encoding: DW_ATE_unsigned)
!110 = !DISubprogram(name: "ap_fixed_base", scope: !17, file: !18, line: 550, type: !111, isLocal: false, isDefinition: false, scopeLine: 550, flags: DIFlagPrototyped, isOptimized: false)
!111 = !DISubroutineType(types: !112)
!112 = !{null, !62, !36}
!113 = !DISubprogram(name: "ap_fixed_base", scope: !17, file: !18, line: 551, type: !114, isLocal: false, isDefinition: false, scopeLine: 551, flags: DIFlagPrototyped, isOptimized: false)
!114 = !DISubroutineType(types: !115)
!115 = !{null, !62, !116}
!116 = !DIDerivedType(tag: DW_TAG_const_type, baseType: !117)
!117 = !DIBasicType(name: "unsigned int", size: 32, encoding: DW_ATE_unsigned)
!118 = !DISubprogram(name: "ap_fixed_base", scope: !17, file: !18, line: 552, type: !119, isLocal: false, isDefinition: false, scopeLine: 552, flags: DIFlagPrototyped, isOptimized: false)
!119 = !DISubroutineType(types: !120)
!120 = !{null, !62, !121}
!121 = !DIDerivedType(tag: DW_TAG_const_type, baseType: !122)
!122 = !DIBasicType(name: "long int", size: 64, encoding: DW_ATE_signed)
!123 = !DISubprogram(name: "ap_fixed_base", scope: !17, file: !18, line: 553, type: !124, isLocal: false, isDefinition: false, scopeLine: 553, flags: DIFlagPrototyped, isOptimized: false)
!124 = !DISubroutineType(types: !125)
!125 = !{null, !62, !126}
!126 = !DIDerivedType(tag: DW_TAG_const_type, baseType: !127)
!127 = !DIBasicType(name: "long unsigned int", size: 64, encoding: DW_ATE_unsigned)
!128 = !DISubprogram(name: "ap_fixed_base", scope: !17, file: !18, line: 554, type: !129, isLocal: false, isDefinition: false, scopeLine: 554, flags: DIFlagPrototyped, isOptimized: false)
!129 = !DISubroutineType(types: !130)
!130 = !{null, !62, !131}
!131 = !DIDerivedType(tag: DW_TAG_const_type, baseType: !132)
!132 = !DIDerivedType(tag: DW_TAG_typedef, name: "ap_slong", file: !41, line: 233, baseType: !133)
!133 = !DIBasicType(name: "long long int", size: 64, encoding: DW_ATE_signed)
!134 = !DISubprogram(name: "ap_fixed_base", scope: !17, file: !18, line: 555, type: !135, isLocal: false, isDefinition: false, scopeLine: 555, flags: DIFlagPrototyped, isOptimized: false)
!135 = !DISubroutineType(types: !136)
!136 = !{null, !62, !137}
!137 = !DIDerivedType(tag: DW_TAG_const_type, baseType: !138)
!138 = !DIDerivedType(tag: DW_TAG_typedef, name: "ap_ulong", file: !41, line: 234, baseType: !139)
!139 = !DIBasicType(name: "long long unsigned int", size: 64, encoding: DW_ATE_unsigned)
!140 = !DISubprogram(name: "ap_fixed_base", scope: !17, file: !18, line: 563, type: !141, isLocal: false, isDefinition: false, scopeLine: 563, flags: DIFlagPrototyped, isOptimized: false)
!141 = !DISubroutineType(types: !142)
!142 = !{null, !62, !143}
!143 = !DIBasicType(name: "double", size: 64, encoding: DW_ATE_float)
!144 = !DISubprogram(name: "ap_fixed_base", scope: !17, file: !18, line: 681, type: !145, isLocal: false, isDefinition: false, scopeLine: 681, flags: DIFlagPrototyped, isOptimized: false)
!145 = !DISubroutineType(types: !146)
!146 = !{null, !62, !147}
!147 = !DIBasicType(name: "float", size: 32, encoding: DW_ATE_float)
!148 = !DISubprogram(name: "ap_fixed_base", scope: !17, file: !18, line: 684, type: !149, isLocal: false, isDefinition: false, scopeLine: 684, flags: DIFlagPrototyped, isOptimized: false)
!149 = !DISubroutineType(types: !150)
!150 = !{null, !62, !151}
!151 = !DIDerivedType(tag: DW_TAG_typedef, name: "half", file: !22, line: 616, baseType: !152)
!152 = !DIBasicType(name: "__fp16", size: 16, encoding: DW_ATE_float)
!153 = !DISubprogram(name: "setBits", linkageName: "_ZN13ap_fixed_baseILi16ELi8ELb1EL9ap_q_mode5EL9ap_o_mode3ELi0EE7setBitsEy", scope: !17, file: !18, line: 816, type: !154, isLocal: false, isDefinition: false, scopeLine: 816, flags: DIFlagPrototyped, isOptimized: false)
!154 = !DISubroutineType(types: !155)
!155 = !{!156, !62, !138}
!156 = !DIDerivedType(tag: DW_TAG_reference_type, baseType: !17, size: 64)
!157 = !DISubprogram(name: "bitsToFixed", linkageName: "_ZN13ap_fixed_baseILi16ELi8ELb1EL9ap_q_mode5EL9ap_o_mode3ELi0EE11bitsToFixedEy", scope: !17, file: !18, line: 823, type: !158, isLocal: false, isDefinition: false, scopeLine: 823, flags: DIFlagPrototyped | DIFlagStaticMember, isOptimized: false)
!158 = !DISubroutineType(types: !159)
!159 = !{!17, !138}
!160 = !DISubprogram(name: "checkOverflowCsimFix", linkageName: "_ZNK13ap_fixed_baseILi16ELi8ELb1EL9ap_q_mode5EL9ap_o_mode3ELi0EE20checkOverflowCsimFixEib", scope: !17, file: !18, line: 834, type: !161, isLocal: false, isDefinition: false, scopeLine: 834, flags: DIFlagPrototyped, isOptimized: false)
!161 = !DISubroutineType(types: !162)
!162 = !{null, !72, !32, !34}
!163 = !DISubprogram(name: "to_ap_int_base", linkageName: "_ZNK13ap_fixed_baseILi16ELi8ELb1EL9ap_q_mode5EL9ap_o_mode3ELi0EE14to_ap_int_baseEb", scope: !17, file: !18, line: 880, type: !164, isLocal: false, isDefinition: false, scopeLine: 880, flags: DIFlagPrototyped, isOptimized: false)
!164 = !DISubroutineType(types: !165)
!165 = !{!166, !72, !34}
!166 = distinct !DICompositeType(tag: DW_TAG_structure_type, name: "ap_int_base<8, true>", file: !167, line: 154, size: 8, flags: DIFlagTypePassByValue, elements: !168, templateParams: !4109, identifier: "_ZTS11ap_int_baseILi8ELb1EE")
!167 = !DIFile(filename: "D:/Xilinx/Vitis_HLS/2021.2/common/technology/autopilot\5Cap_int_base.h", directory: "D:\5CNTHU\5CHLS\5CFINAL\5CCHANNEL_KBEST")
!168 = !{!169, !179, !180, !181, !186, !190, !193, !196, !199, !202, !205, !208, !211, !214, !217, !220, !223, !226, !229, !232, !235, !238, !241, !246, !250, !255, !256, !260, !263, !266, !269, !272, !275, !278, !281, !284, !287, !290, !293, !296, !299, !305, !308, !311, !314, !317, !320, !323, !324, !327, !330, !333, !336, !339, !342, !345, !348, !352, !353, !354, !355, !358, !359, !362, !365, !366, !369, !370, !371, !372, !373, !374, !375, !378, !379, !380, !479, !480, !483, !4003, !4004, !4005, !4009, !4012, !4015, !4018, !4019, !4020, !4110, !4111, !4112, !4113, !4114, !4115, !4116, !4117, !4118, !4119, !4120}
!169 = !DIDerivedType(tag: DW_TAG_inheritance, scope: !166, baseType: !170)
!170 = distinct !DICompositeType(tag: DW_TAG_structure_type, name: "ssdm_int<8, true>", file: !22, line: 514, size: 8, flags: DIFlagTypePassByValue, elements: !171, templateParams: !177, identifier: "_ZTS8ssdm_intILi8ELb1EE")
!171 = !{!172, !173}
!172 = !DIDerivedType(tag: DW_TAG_member, name: "V", scope: !170, file: !22, line: 516, baseType: !84, size: 8)
!173 = !DISubprogram(name: "ssdm_int", scope: !170, file: !22, line: 517, type: !174, isLocal: false, isDefinition: false, scopeLine: 517, flags: DIFlagPrototyped, isOptimized: false)
!174 = !DISubroutineType(types: !175)
!175 = !{null, !176}
!176 = !DIDerivedType(tag: DW_TAG_pointer_type, baseType: !170, size: 64, flags: DIFlagArtificial | DIFlagObjectPointer)
!177 = !{!178, !33}
!178 = !DITemplateValueParameter(name: "_AP_N", type: !32, value: i32 8)
!179 = !DIDerivedType(tag: DW_TAG_member, name: "width", scope: !166, file: !167, line: 176, baseType: !36, flags: DIFlagStaticMember, extraData: i32 8)
!180 = !DIDerivedType(tag: DW_TAG_member, name: "sign_flag", scope: !166, file: !167, line: 177, baseType: !88, flags: DIFlagStaticMember, extraData: i1 true)
!181 = !DISubprogram(name: "countLeadingOnes", linkageName: "_ZNK11ap_int_baseILi8ELb1EE16countLeadingOnesEv", scope: !166, file: !167, line: 156, type: !182, isLocal: false, isDefinition: false, scopeLine: 156, flags: DIFlagPrivate | DIFlagPrototyped, isOptimized: false)
!182 = !DISubroutineType(types: !183)
!183 = !{!32, !184}
!184 = !DIDerivedType(tag: DW_TAG_pointer_type, baseType: !185, size: 64, flags: DIFlagArtificial | DIFlagObjectPointer)
!185 = !DIDerivedType(tag: DW_TAG_const_type, baseType: !166)
!186 = !DISubprogram(name: "ap_int_base", scope: !166, file: !167, line: 221, type: !187, isLocal: false, isDefinition: false, scopeLine: 221, flags: DIFlagPrototyped, isOptimized: false)
!187 = !DISubroutineType(types: !188)
!188 = !{null, !189}
!189 = !DIDerivedType(tag: DW_TAG_pointer_type, baseType: !166, size: 64, flags: DIFlagArtificial | DIFlagObjectPointer)
!190 = !DISubprogram(name: "ap_int_base", scope: !166, file: !167, line: 254, type: !191, isLocal: false, isDefinition: false, scopeLine: 254, flags: DIFlagPrototyped, isOptimized: false)
!191 = !DISubroutineType(types: !192)
!192 = !{null, !189, !88}
!193 = !DISubprogram(name: "ap_int_base", scope: !166, file: !167, line: 255, type: !194, isLocal: false, isDefinition: false, scopeLine: 255, flags: DIFlagPrototyped, isOptimized: false)
!194 = !DISubroutineType(types: !195)
!195 = !{null, !189, !79}
!196 = !DISubprogram(name: "ap_int_base", scope: !166, file: !167, line: 256, type: !197, isLocal: false, isDefinition: false, scopeLine: 256, flags: DIFlagPrototyped, isOptimized: false)
!197 = !DISubroutineType(types: !198)
!198 = !{null, !189, !95}
!199 = !DISubprogram(name: "ap_int_base", scope: !166, file: !167, line: 257, type: !200, isLocal: false, isDefinition: false, scopeLine: 257, flags: DIFlagPrototyped, isOptimized: false)
!200 = !DISubroutineType(types: !201)
!201 = !{null, !189, !99}
!202 = !DISubprogram(name: "ap_int_base", scope: !166, file: !167, line: 258, type: !203, isLocal: false, isDefinition: false, scopeLine: 258, flags: DIFlagPrototyped, isOptimized: false)
!203 = !DISubroutineType(types: !204)
!204 = !{null, !189, !104}
!205 = !DISubprogram(name: "ap_int_base", scope: !166, file: !167, line: 259, type: !206, isLocal: false, isDefinition: false, scopeLine: 259, flags: DIFlagPrototyped, isOptimized: false)
!206 = !DISubroutineType(types: !207)
!207 = !{null, !189, !108}
!208 = !DISubprogram(name: "ap_int_base", scope: !166, file: !167, line: 260, type: !209, isLocal: false, isDefinition: false, scopeLine: 260, flags: DIFlagPrototyped, isOptimized: false)
!209 = !DISubroutineType(types: !210)
!210 = !{null, !189, !36}
!211 = !DISubprogram(name: "ap_int_base", scope: !166, file: !167, line: 261, type: !212, isLocal: false, isDefinition: false, scopeLine: 261, flags: DIFlagPrototyped, isOptimized: false)
!212 = !DISubroutineType(types: !213)
!213 = !{null, !189, !116}
!214 = !DISubprogram(name: "ap_int_base", scope: !166, file: !167, line: 262, type: !215, isLocal: false, isDefinition: false, scopeLine: 262, flags: DIFlagPrototyped, isOptimized: false)
!215 = !DISubroutineType(types: !216)
!216 = !{null, !189, !121}
!217 = !DISubprogram(name: "ap_int_base", scope: !166, file: !167, line: 263, type: !218, isLocal: false, isDefinition: false, scopeLine: 263, flags: DIFlagPrototyped, isOptimized: false)
!218 = !DISubroutineType(types: !219)
!219 = !{null, !189, !126}
!220 = !DISubprogram(name: "ap_int_base", scope: !166, file: !167, line: 264, type: !221, isLocal: false, isDefinition: false, scopeLine: 264, flags: DIFlagPrototyped, isOptimized: false)
!221 = !DISubroutineType(types: !222)
!222 = !{null, !189, !131}
!223 = !DISubprogram(name: "ap_int_base", scope: !166, file: !167, line: 265, type: !224, isLocal: false, isDefinition: false, scopeLine: 265, flags: DIFlagPrototyped, isOptimized: false)
!224 = !DISubroutineType(types: !225)
!225 = !{null, !189, !137}
!226 = !DISubprogram(name: "ap_int_base", scope: !166, file: !167, line: 270, type: !227, isLocal: false, isDefinition: false, scopeLine: 270, flags: DIFlagPrototyped, isOptimized: false)
!227 = !DISubroutineType(types: !228)
!228 = !{null, !189, !151}
!229 = !DISubprogram(name: "ap_int_base", scope: !166, file: !167, line: 276, type: !230, isLocal: false, isDefinition: false, scopeLine: 276, flags: DIFlagPrototyped, isOptimized: false)
!230 = !DISubroutineType(types: !231)
!231 = !{null, !189, !147}
!232 = !DISubprogram(name: "ap_int_base", scope: !166, file: !167, line: 335, type: !233, isLocal: false, isDefinition: false, scopeLine: 335, flags: DIFlagPrototyped, isOptimized: false)
!233 = !DISubroutineType(types: !234)
!234 = !{null, !189, !143}
!235 = !DISubprogram(name: "ap_int_base", scope: !166, file: !167, line: 431, type: !236, isLocal: false, isDefinition: false, scopeLine: 431, flags: DIFlagPrototyped, isOptimized: false)
!236 = !DISubroutineType(types: !237)
!237 = !{null, !189, !78}
!238 = !DISubprogram(name: "ap_int_base", scope: !166, file: !167, line: 437, type: !239, isLocal: false, isDefinition: false, scopeLine: 437, flags: DIFlagPrototyped, isOptimized: false)
!239 = !DISubroutineType(types: !240)
!240 = !{null, !189, !78, !84}
!241 = !DISubprogram(name: "read", linkageName: "_ZNV11ap_int_baseILi8ELb1EE4readEv", scope: !166, file: !167, line: 459, type: !242, isLocal: false, isDefinition: false, scopeLine: 459, flags: DIFlagPrototyped, isOptimized: false)
!242 = !DISubroutineType(types: !243)
!243 = !{!166, !244}
!244 = !DIDerivedType(tag: DW_TAG_pointer_type, baseType: !245, size: 64, flags: DIFlagArtificial | DIFlagObjectPointer)
!245 = !DIDerivedType(tag: DW_TAG_volatile_type, baseType: !166)
!246 = !DISubprogram(name: "write", linkageName: "_ZNV11ap_int_baseILi8ELb1EE5writeERKS0_", scope: !166, file: !167, line: 466, type: !247, isLocal: false, isDefinition: false, scopeLine: 466, flags: DIFlagPrototyped, isOptimized: false)
!247 = !DISubroutineType(types: !248)
!248 = !{null, !244, !249}
!249 = !DIDerivedType(tag: DW_TAG_reference_type, baseType: !185, size: 64)
!250 = !DISubprogram(name: "operator=", linkageName: "_ZNV11ap_int_baseILi8ELb1EEaSERVKS0_", scope: !166, file: !167, line: 478, type: !251, isLocal: false, isDefinition: false, scopeLine: 478, flags: DIFlagPrototyped, isOptimized: false)
!251 = !DISubroutineType(types: !252)
!252 = !{null, !244, !253}
!253 = !DIDerivedType(tag: DW_TAG_reference_type, baseType: !254, size: 64)
!254 = !DIDerivedType(tag: DW_TAG_const_type, baseType: !245)
!255 = !DISubprogram(name: "operator=", linkageName: "_ZNV11ap_int_baseILi8ELb1EEaSERKS0_", scope: !166, file: !167, line: 488, type: !247, isLocal: false, isDefinition: false, scopeLine: 488, flags: DIFlagPrototyped, isOptimized: false)
!256 = !DISubprogram(name: "operator=", linkageName: "_ZN11ap_int_baseILi8ELb1EEaSERVKS0_", scope: !166, file: !167, line: 505, type: !257, isLocal: false, isDefinition: false, scopeLine: 505, flags: DIFlagPrototyped, isOptimized: false)
!257 = !DISubroutineType(types: !258)
!258 = !{!259, !189, !253}
!259 = !DIDerivedType(tag: DW_TAG_reference_type, baseType: !166, size: 64)
!260 = !DISubprogram(name: "operator=", linkageName: "_ZN11ap_int_baseILi8ELb1EEaSERKS0_", scope: !166, file: !167, line: 511, type: !261, isLocal: false, isDefinition: false, scopeLine: 511, flags: DIFlagPrototyped, isOptimized: false)
!261 = !DISubroutineType(types: !262)
!262 = !{!259, !189, !249}
!263 = !DISubprogram(name: "operator=", linkageName: "_ZN11ap_int_baseILi8ELb1EEaSEb", scope: !166, file: !167, line: 525, type: !264, isLocal: false, isDefinition: false, scopeLine: 525, flags: DIFlagPrototyped, isOptimized: false)
!264 = !DISubroutineType(types: !265)
!265 = !{!259, !189, !34}
!266 = !DISubprogram(name: "operator=", linkageName: "_ZN11ap_int_baseILi8ELb1EEaSEc", scope: !166, file: !167, line: 526, type: !267, isLocal: false, isDefinition: false, scopeLine: 526, flags: DIFlagPrototyped, isOptimized: false)
!267 = !DISubroutineType(types: !268)
!268 = !{!259, !189, !80}
!269 = !DISubprogram(name: "operator=", linkageName: "_ZN11ap_int_baseILi8ELb1EEaSEa", scope: !166, file: !167, line: 527, type: !270, isLocal: false, isDefinition: false, scopeLine: 527, flags: DIFlagPrototyped, isOptimized: false)
!270 = !DISubroutineType(types: !271)
!271 = !{!259, !189, !84}
!272 = !DISubprogram(name: "operator=", linkageName: "_ZN11ap_int_baseILi8ELb1EEaSEh", scope: !166, file: !167, line: 528, type: !273, isLocal: false, isDefinition: false, scopeLine: 528, flags: DIFlagPrototyped, isOptimized: false)
!273 = !DISubroutineType(types: !274)
!274 = !{!259, !189, !100}
!275 = !DISubprogram(name: "operator=", linkageName: "_ZN11ap_int_baseILi8ELb1EEaSEs", scope: !166, file: !167, line: 529, type: !276, isLocal: false, isDefinition: false, scopeLine: 529, flags: DIFlagPrototyped, isOptimized: false)
!276 = !DISubroutineType(types: !277)
!277 = !{!259, !189, !25}
!278 = !DISubprogram(name: "operator=", linkageName: "_ZN11ap_int_baseILi8ELb1EEaSEt", scope: !166, file: !167, line: 530, type: !279, isLocal: false, isDefinition: false, scopeLine: 530, flags: DIFlagPrototyped, isOptimized: false)
!279 = !DISubroutineType(types: !280)
!280 = !{!259, !189, !109}
!281 = !DISubprogram(name: "operator=", linkageName: "_ZN11ap_int_baseILi8ELb1EEaSEi", scope: !166, file: !167, line: 531, type: !282, isLocal: false, isDefinition: false, scopeLine: 531, flags: DIFlagPrototyped, isOptimized: false)
!282 = !DISubroutineType(types: !283)
!283 = !{!259, !189, !32}
!284 = !DISubprogram(name: "operator=", linkageName: "_ZN11ap_int_baseILi8ELb1EEaSEj", scope: !166, file: !167, line: 532, type: !285, isLocal: false, isDefinition: false, scopeLine: 532, flags: DIFlagPrototyped, isOptimized: false)
!285 = !DISubroutineType(types: !286)
!286 = !{!259, !189, !117}
!287 = !DISubprogram(name: "operator=", linkageName: "_ZN11ap_int_baseILi8ELb1EEaSEl", scope: !166, file: !167, line: 533, type: !288, isLocal: false, isDefinition: false, scopeLine: 533, flags: DIFlagPrototyped, isOptimized: false)
!288 = !DISubroutineType(types: !289)
!289 = !{!259, !189, !122}
!290 = !DISubprogram(name: "operator=", linkageName: "_ZN11ap_int_baseILi8ELb1EEaSEm", scope: !166, file: !167, line: 534, type: !291, isLocal: false, isDefinition: false, scopeLine: 534, flags: DIFlagPrototyped, isOptimized: false)
!291 = !DISubroutineType(types: !292)
!292 = !{!259, !189, !127}
!293 = !DISubprogram(name: "operator=", linkageName: "_ZN11ap_int_baseILi8ELb1EEaSEx", scope: !166, file: !167, line: 535, type: !294, isLocal: false, isDefinition: false, scopeLine: 535, flags: DIFlagPrototyped, isOptimized: false)
!294 = !DISubroutineType(types: !295)
!295 = !{!259, !189, !132}
!296 = !DISubprogram(name: "operator=", linkageName: "_ZN11ap_int_baseILi8ELb1EEaSEy", scope: !166, file: !167, line: 536, type: !297, isLocal: false, isDefinition: false, scopeLine: 536, flags: DIFlagPrototyped, isOptimized: false)
!297 = !DISubroutineType(types: !298)
!298 = !{!259, !189, !138}
!299 = !DISubprogram(name: "operator long long", linkageName: "_ZNK11ap_int_baseILi8ELb1EEcvxEv", scope: !166, file: !167, line: 587, type: !300, isLocal: false, isDefinition: false, scopeLine: 587, flags: DIFlagPrototyped, isOptimized: false)
!300 = !DISubroutineType(types: !301)
!301 = !{!302, !184}
!302 = !DIDerivedType(tag: DW_TAG_typedef, name: "RetType", scope: !166, file: !167, line: 174, baseType: !303)
!303 = !DIDerivedType(tag: DW_TAG_typedef, name: "Type", scope: !304, file: !167, line: 92, baseType: !132)
!304 = distinct !DICompositeType(tag: DW_TAG_structure_type, name: "retval<8, true>", file: !167, line: 91, size: 8, flags: DIFlagTypePassByValue, elements: !4, templateParams: !177, identifier: "_ZTS6retvalILi8ELb1EE")
!305 = !DISubprogram(name: "to_bool", linkageName: "_ZNK11ap_int_baseILi8ELb1EE7to_boolEv", scope: !166, file: !167, line: 592, type: !306, isLocal: false, isDefinition: false, scopeLine: 592, flags: DIFlagPrototyped, isOptimized: false)
!306 = !DISubroutineType(types: !307)
!307 = !{!34, !184}
!308 = !DISubprogram(name: "to_char", linkageName: "_ZNK11ap_int_baseILi8ELb1EE7to_charEv", scope: !166, file: !167, line: 593, type: !309, isLocal: false, isDefinition: false, scopeLine: 593, flags: DIFlagPrototyped, isOptimized: false)
!309 = !DISubroutineType(types: !310)
!310 = !{!80, !184}
!311 = !DISubprogram(name: "to_schar", linkageName: "_ZNK11ap_int_baseILi8ELb1EE8to_scharEv", scope: !166, file: !167, line: 594, type: !312, isLocal: false, isDefinition: false, scopeLine: 594, flags: DIFlagPrototyped, isOptimized: false)
!312 = !DISubroutineType(types: !313)
!313 = !{!84, !184}
!314 = !DISubprogram(name: "to_uchar", linkageName: "_ZNK11ap_int_baseILi8ELb1EE8to_ucharEv", scope: !166, file: !167, line: 595, type: !315, isLocal: false, isDefinition: false, scopeLine: 595, flags: DIFlagPrototyped, isOptimized: false)
!315 = !DISubroutineType(types: !316)
!316 = !{!100, !184}
!317 = !DISubprogram(name: "to_short", linkageName: "_ZNK11ap_int_baseILi8ELb1EE8to_shortEv", scope: !166, file: !167, line: 596, type: !318, isLocal: false, isDefinition: false, scopeLine: 596, flags: DIFlagPrototyped, isOptimized: false)
!318 = !DISubroutineType(types: !319)
!319 = !{!25, !184}
!320 = !DISubprogram(name: "to_ushort", linkageName: "_ZNK11ap_int_baseILi8ELb1EE9to_ushortEv", scope: !166, file: !167, line: 597, type: !321, isLocal: false, isDefinition: false, scopeLine: 597, flags: DIFlagPrototyped, isOptimized: false)
!321 = !DISubroutineType(types: !322)
!322 = !{!109, !184}
!323 = !DISubprogram(name: "to_int", linkageName: "_ZNK11ap_int_baseILi8ELb1EE6to_intEv", scope: !166, file: !167, line: 598, type: !182, isLocal: false, isDefinition: false, scopeLine: 598, flags: DIFlagPrototyped, isOptimized: false)
!324 = !DISubprogram(name: "to_uint", linkageName: "_ZNK11ap_int_baseILi8ELb1EE7to_uintEv", scope: !166, file: !167, line: 599, type: !325, isLocal: false, isDefinition: false, scopeLine: 599, flags: DIFlagPrototyped, isOptimized: false)
!325 = !DISubroutineType(types: !326)
!326 = !{!117, !184}
!327 = !DISubprogram(name: "to_long", linkageName: "_ZNK11ap_int_baseILi8ELb1EE7to_longEv", scope: !166, file: !167, line: 600, type: !328, isLocal: false, isDefinition: false, scopeLine: 600, flags: DIFlagPrototyped, isOptimized: false)
!328 = !DISubroutineType(types: !329)
!329 = !{!122, !184}
!330 = !DISubprogram(name: "to_ulong", linkageName: "_ZNK11ap_int_baseILi8ELb1EE8to_ulongEv", scope: !166, file: !167, line: 601, type: !331, isLocal: false, isDefinition: false, scopeLine: 601, flags: DIFlagPrototyped, isOptimized: false)
!331 = !DISubroutineType(types: !332)
!332 = !{!127, !184}
!333 = !DISubprogram(name: "to_int64", linkageName: "_ZNK11ap_int_baseILi8ELb1EE8to_int64Ev", scope: !166, file: !167, line: 602, type: !334, isLocal: false, isDefinition: false, scopeLine: 602, flags: DIFlagPrototyped, isOptimized: false)
!334 = !DISubroutineType(types: !335)
!335 = !{!132, !184}
!336 = !DISubprogram(name: "to_uint64", linkageName: "_ZNK11ap_int_baseILi8ELb1EE9to_uint64Ev", scope: !166, file: !167, line: 603, type: !337, isLocal: false, isDefinition: false, scopeLine: 603, flags: DIFlagPrototyped, isOptimized: false)
!337 = !DISubroutineType(types: !338)
!338 = !{!138, !184}
!339 = !DISubprogram(name: "to_half", linkageName: "_ZNK11ap_int_baseILi8ELb1EE7to_halfEv", scope: !166, file: !167, line: 604, type: !340, isLocal: false, isDefinition: false, scopeLine: 604, flags: DIFlagPrototyped, isOptimized: false)
!340 = !DISubroutineType(types: !341)
!341 = !{!151, !184}
!342 = !DISubprogram(name: "to_float", linkageName: "_ZNK11ap_int_baseILi8ELb1EE8to_floatEv", scope: !166, file: !167, line: 605, type: !343, isLocal: false, isDefinition: false, scopeLine: 605, flags: DIFlagPrototyped, isOptimized: false)
!343 = !DISubroutineType(types: !344)
!344 = !{!147, !184}
!345 = !DISubprogram(name: "to_double", linkageName: "_ZNK11ap_int_baseILi8ELb1EE9to_doubleEv", scope: !166, file: !167, line: 606, type: !346, isLocal: false, isDefinition: false, scopeLine: 606, flags: DIFlagPrototyped, isOptimized: false)
!346 = !DISubroutineType(types: !347)
!347 = !{!143, !184}
!348 = !DISubprogram(name: "length", linkageName: "_ZNVK11ap_int_baseILi8ELb1EE6lengthEv", scope: !166, file: !167, line: 630, type: !349, isLocal: false, isDefinition: false, scopeLine: 630, flags: DIFlagPrototyped, isOptimized: false)
!349 = !DISubroutineType(types: !350)
!350 = !{!32, !351}
!351 = !DIDerivedType(tag: DW_TAG_pointer_type, baseType: !254, size: 64, flags: DIFlagArtificial | DIFlagObjectPointer)
!352 = !DISubprogram(name: "iszero", linkageName: "_ZNK11ap_int_baseILi8ELb1EE6iszeroEv", scope: !166, file: !167, line: 633, type: !306, isLocal: false, isDefinition: false, scopeLine: 633, flags: DIFlagPrototyped, isOptimized: false)
!353 = !DISubprogram(name: "is_zero", linkageName: "_ZNK11ap_int_baseILi8ELb1EE7is_zeroEv", scope: !166, file: !167, line: 636, type: !306, isLocal: false, isDefinition: false, scopeLine: 636, flags: DIFlagPrototyped, isOptimized: false)
!354 = !DISubprogram(name: "sign", linkageName: "_ZNK11ap_int_baseILi8ELb1EE4signEv", scope: !166, file: !167, line: 639, type: !306, isLocal: false, isDefinition: false, scopeLine: 639, flags: DIFlagPrototyped, isOptimized: false)
!355 = !DISubprogram(name: "clear", linkageName: "_ZN11ap_int_baseILi8ELb1EE5clearEi", scope: !166, file: !167, line: 648, type: !356, isLocal: false, isDefinition: false, scopeLine: 648, flags: DIFlagPrototyped, isOptimized: false)
!356 = !DISubroutineType(types: !357)
!357 = !{null, !189, !32}
!358 = !DISubprogram(name: "invert", linkageName: "_ZN11ap_int_baseILi8ELb1EE6invertEi", scope: !166, file: !167, line: 654, type: !356, isLocal: false, isDefinition: false, scopeLine: 654, flags: DIFlagPrototyped, isOptimized: false)
!359 = !DISubprogram(name: "test", linkageName: "_ZNK11ap_int_baseILi8ELb1EE4testEi", scope: !166, file: !167, line: 663, type: !360, isLocal: false, isDefinition: false, scopeLine: 663, flags: DIFlagPrototyped, isOptimized: false)
!360 = !DISubroutineType(types: !361)
!361 = !{!34, !184, !32}
!362 = !DISubprogram(name: "get", linkageName: "_ZN11ap_int_baseILi8ELb1EE3getEv", scope: !166, file: !167, line: 669, type: !363, isLocal: false, isDefinition: false, scopeLine: 669, flags: DIFlagPrototyped, isOptimized: false)
!363 = !DISubroutineType(types: !364)
!364 = !{!259, !189}
!365 = !DISubprogram(name: "set", linkageName: "_ZN11ap_int_baseILi8ELb1EE3setEi", scope: !166, file: !167, line: 672, type: !356, isLocal: false, isDefinition: false, scopeLine: 672, flags: DIFlagPrototyped, isOptimized: false)
!366 = !DISubprogram(name: "set", linkageName: "_ZN11ap_int_baseILi8ELb1EE3setEib", scope: !166, file: !167, line: 678, type: !367, isLocal: false, isDefinition: false, scopeLine: 678, flags: DIFlagPrototyped, isOptimized: false)
!367 = !DISubroutineType(types: !368)
!368 = !{null, !189, !32, !34}
!369 = !DISubprogram(name: "lrotate", linkageName: "_ZN11ap_int_baseILi8ELb1EE7lrotateEi", scope: !166, file: !167, line: 685, type: !282, isLocal: false, isDefinition: false, scopeLine: 685, flags: DIFlagPrototyped, isOptimized: false)
!370 = !DISubprogram(name: "rrotate", linkageName: "_ZN11ap_int_baseILi8ELb1EE7rrotateEi", scope: !166, file: !167, line: 700, type: !282, isLocal: false, isDefinition: false, scopeLine: 700, flags: DIFlagPrototyped, isOptimized: false)
!371 = !DISubprogram(name: "reverse", linkageName: "_ZN11ap_int_baseILi8ELb1EE7reverseEv", scope: !166, file: !167, line: 715, type: !363, isLocal: false, isDefinition: false, scopeLine: 715, flags: DIFlagPrototyped, isOptimized: false)
!372 = !DISubprogram(name: "set_bit", linkageName: "_ZN11ap_int_baseILi8ELb1EE7set_bitEib", scope: !166, file: !167, line: 721, type: !367, isLocal: false, isDefinition: false, scopeLine: 721, flags: DIFlagPrototyped, isOptimized: false)
!373 = !DISubprogram(name: "get_bit", linkageName: "_ZNK11ap_int_baseILi8ELb1EE7get_bitEi", scope: !166, file: !167, line: 726, type: !360, isLocal: false, isDefinition: false, scopeLine: 726, flags: DIFlagPrototyped, isOptimized: false)
!374 = !DISubprogram(name: "b_not", linkageName: "_ZN11ap_int_baseILi8ELb1EE5b_notEv", scope: !166, file: !167, line: 731, type: !187, isLocal: false, isDefinition: false, scopeLine: 731, flags: DIFlagPrototyped, isOptimized: false)
!375 = !DISubprogram(name: "checkOverflowCsim", linkageName: "_ZNK11ap_int_baseILi8ELb1EE17checkOverflowCsimEibb", scope: !166, file: !167, line: 805, type: !376, isLocal: false, isDefinition: false, scopeLine: 805, flags: DIFlagPrototyped, isOptimized: false)
!376 = !DISubroutineType(types: !377)
!377 = !{!34, !184, !32, !34, !34}
!378 = !DISubprogram(name: "operator++", linkageName: "_ZN11ap_int_baseILi8ELb1EEppEv", scope: !166, file: !167, line: 910, type: !363, isLocal: false, isDefinition: false, scopeLine: 910, flags: DIFlagPrototyped, isOptimized: false)
!379 = !DISubprogram(name: "operator--", linkageName: "_ZN11ap_int_baseILi8ELb1EEmmEv", scope: !166, file: !167, line: 914, type: !363, isLocal: false, isDefinition: false, scopeLine: 914, flags: DIFlagPrototyped, isOptimized: false)
!380 = !DISubprogram(name: "operator++", linkageName: "_ZN11ap_int_baseILi8ELb1EEppEi", scope: !166, file: !167, line: 922, type: !381, isLocal: false, isDefinition: false, scopeLine: 922, flags: DIFlagPrototyped, isOptimized: false)
!381 = !DISubroutineType(types: !382)
!382 = !{!383, !189, !32}
!383 = !DIDerivedType(tag: DW_TAG_const_type, baseType: !384)
!384 = !DIDerivedType(tag: DW_TAG_typedef, name: "arg1", scope: !385, file: !167, line: 213, baseType: !389)
!385 = distinct !DICompositeType(tag: DW_TAG_structure_type, name: "RType<8, true>", scope: !166, file: !167, line: 180, size: 8, flags: DIFlagTypePassByValue, elements: !4, templateParams: !386, identifier: "_ZTSN11ap_int_baseILi8ELb1EE5RTypeILi8ELb1EEE")
!386 = !{!387, !388}
!387 = !DITemplateValueParameter(name: "_AP_W2", type: !32, value: i32 8)
!388 = !DITemplateValueParameter(name: "_AP_S2", type: !34, value: i8 1)
!389 = !DIDerivedType(tag: DW_TAG_typedef, name: "type", scope: !390, file: !167, line: 149, baseType: !391)
!390 = distinct !DICompositeType(tag: DW_TAG_structure_type, name: "_ap_int_factory<8, true>", file: !167, line: 149, size: 8, flags: DIFlagTypePassByValue, elements: !4, templateParams: !386, identifier: "_ZTS15_ap_int_factoryILi8ELb1EE")
!391 = distinct !DICompositeType(tag: DW_TAG_structure_type, name: "ap_int<8>", file: !392, line: 17, size: 8, flags: DIFlagTypePassByValue, elements: !393, templateParams: !477, identifier: "_ZTS6ap_intILi8EE")
!392 = !DIFile(filename: "r:/builds/2021.2/rdi_builds/continuous/2021_10_19_3367213/src/shared/hls/clib/include/header_files\5Cap_int.h", directory: "R:\5Cbuilds\5C2021.2\5Crdi_builds\5Ccontinuous\5C2021_10_19_3367213\5Csrc\5Cshared")
!393 = !{!394, !395, !399, !402, !405, !408, !411, !414, !417, !420, !423, !426, !429, !432, !437, !441, !444, !447, !452, !455, !458, !464, !470, !474}
!394 = !DIDerivedType(tag: DW_TAG_inheritance, scope: !391, baseType: !166)
!395 = !DISubprogram(name: "ap_int", scope: !391, file: !392, line: 20, type: !396, isLocal: false, isDefinition: false, scopeLine: 20, flags: DIFlagPrototyped, isOptimized: false)
!396 = !DISubroutineType(types: !397)
!397 = !{null, !398}
!398 = !DIDerivedType(tag: DW_TAG_pointer_type, baseType: !391, size: 64, flags: DIFlagArtificial | DIFlagObjectPointer)
!399 = !DISubprogram(name: "ap_int", scope: !391, file: !392, line: 48, type: !400, isLocal: false, isDefinition: false, scopeLine: 48, flags: DIFlagPrototyped, isOptimized: false)
!400 = !DISubroutineType(types: !401)
!401 = !{null, !398, !100, !34}
!402 = !DISubprogram(name: "ap_int", scope: !391, file: !392, line: 116, type: !403, isLocal: false, isDefinition: false, scopeLine: 116, flags: DIFlagPrototyped, isOptimized: false)
!403 = !DISubroutineType(types: !404)
!404 = !{null, !398, !34}
!405 = !DISubprogram(name: "ap_int", scope: !391, file: !392, line: 117, type: !406, isLocal: false, isDefinition: false, scopeLine: 117, flags: DIFlagPrototyped, isOptimized: false)
!406 = !DISubroutineType(types: !407)
!407 = !{null, !398, !80}
!408 = !DISubprogram(name: "ap_int", scope: !391, file: !392, line: 118, type: !409, isLocal: false, isDefinition: false, scopeLine: 118, flags: DIFlagPrototyped, isOptimized: false)
!409 = !DISubroutineType(types: !410)
!410 = !{null, !398, !84}
!411 = !DISubprogram(name: "ap_int", scope: !391, file: !392, line: 119, type: !412, isLocal: false, isDefinition: false, scopeLine: 119, flags: DIFlagPrototyped, isOptimized: false)
!412 = !DISubroutineType(types: !413)
!413 = !{null, !398, !100}
!414 = !DISubprogram(name: "ap_int", scope: !391, file: !392, line: 120, type: !415, isLocal: false, isDefinition: false, scopeLine: 120, flags: DIFlagPrototyped, isOptimized: false)
!415 = !DISubroutineType(types: !416)
!416 = !{null, !398, !25}
!417 = !DISubprogram(name: "ap_int", scope: !391, file: !392, line: 121, type: !418, isLocal: false, isDefinition: false, scopeLine: 121, flags: DIFlagPrototyped, isOptimized: false)
!418 = !DISubroutineType(types: !419)
!419 = !{null, !398, !109}
!420 = !DISubprogram(name: "ap_int", scope: !391, file: !392, line: 122, type: !421, isLocal: false, isDefinition: false, scopeLine: 122, flags: DIFlagPrototyped, isOptimized: false)
!421 = !DISubroutineType(types: !422)
!422 = !{null, !398, !32}
!423 = !DISubprogram(name: "ap_int", scope: !391, file: !392, line: 123, type: !424, isLocal: false, isDefinition: false, scopeLine: 123, flags: DIFlagPrototyped, isOptimized: false)
!424 = !DISubroutineType(types: !425)
!425 = !{null, !398, !117}
!426 = !DISubprogram(name: "ap_int", scope: !391, file: !392, line: 124, type: !427, isLocal: false, isDefinition: false, scopeLine: 124, flags: DIFlagPrototyped, isOptimized: false)
!427 = !DISubroutineType(types: !428)
!428 = !{null, !398, !122}
!429 = !DISubprogram(name: "ap_int", scope: !391, file: !392, line: 125, type: !430, isLocal: false, isDefinition: false, scopeLine: 125, flags: DIFlagPrototyped, isOptimized: false)
!430 = !DISubroutineType(types: !431)
!431 = !{null, !398, !127}
!432 = !DISubprogram(name: "ap_int", scope: !391, file: !392, line: 126, type: !433, isLocal: false, isDefinition: false, scopeLine: 126, flags: DIFlagPrototyped, isOptimized: false)
!433 = !DISubroutineType(types: !434)
!434 = !{null, !398, !435}
!435 = !DIDerivedType(tag: DW_TAG_typedef, name: "ap_slong", file: !436, line: 187, baseType: !133)
!436 = !DIFile(filename: "r:/builds/2021.2/rdi_builds/continuous/2021_10_19_3367213/src/shared/hls/clib/include/header_files\5Cap_decl.h", directory: "R:\5Cbuilds\5C2021.2\5Crdi_builds\5Ccontinuous\5C2021_10_19_3367213\5Csrc\5Cshared")
!437 = !DISubprogram(name: "ap_int", scope: !391, file: !392, line: 127, type: !438, isLocal: false, isDefinition: false, scopeLine: 127, flags: DIFlagPrototyped, isOptimized: false)
!438 = !DISubroutineType(types: !439)
!439 = !{null, !398, !440}
!440 = !DIDerivedType(tag: DW_TAG_typedef, name: "ap_ulong", file: !436, line: 188, baseType: !139)
!441 = !DISubprogram(name: "ap_int", scope: !391, file: !392, line: 129, type: !442, isLocal: false, isDefinition: false, scopeLine: 129, flags: DIFlagPrototyped, isOptimized: false)
!442 = !DISubroutineType(types: !443)
!443 = !{null, !398, !143}
!444 = !DISubprogram(name: "ap_int", scope: !391, file: !392, line: 130, type: !445, isLocal: false, isDefinition: false, scopeLine: 130, flags: DIFlagPrototyped, isOptimized: false)
!445 = !DISubroutineType(types: !446)
!446 = !{null, !398, !147}
!447 = !DISubprogram(name: "ap_int", scope: !391, file: !392, line: 131, type: !448, isLocal: false, isDefinition: false, scopeLine: 131, flags: DIFlagPrototyped, isOptimized: false)
!448 = !DISubroutineType(types: !449)
!449 = !{null, !398, !450}
!450 = !DIDerivedType(tag: DW_TAG_typedef, name: "half", file: !451, line: 570, baseType: !152)
!451 = !DIFile(filename: "r:/builds/2021.2/rdi_builds/continuous/2021_10_19_3367213/src/shared/hls/clib/include/header_files\5Cap_common.h", directory: "R:\5Cbuilds\5C2021.2\5Crdi_builds\5Ccontinuous\5C2021_10_19_3367213\5Csrc\5Cshared")
!452 = !DISubprogram(name: "ap_int", scope: !391, file: !392, line: 134, type: !453, isLocal: false, isDefinition: false, scopeLine: 134, flags: DIFlagPrototyped, isOptimized: false)
!453 = !DISubroutineType(types: !454)
!454 = !{null, !398, !78}
!455 = !DISubprogram(name: "ap_int", scope: !391, file: !392, line: 136, type: !456, isLocal: false, isDefinition: false, scopeLine: 136, flags: DIFlagPrototyped, isOptimized: false)
!456 = !DISubroutineType(types: !457)
!457 = !{null, !398, !78, !84}
!458 = !DISubprogram(name: "operator=", linkageName: "_ZN6ap_intILi8EEaSERKS0_", scope: !391, file: !392, line: 141, type: !459, isLocal: false, isDefinition: false, scopeLine: 141, flags: DIFlagPrototyped, isOptimized: false)
!459 = !DISubroutineType(types: !460)
!460 = !{!461, !398, !462}
!461 = !DIDerivedType(tag: DW_TAG_reference_type, baseType: !391, size: 64)
!462 = !DIDerivedType(tag: DW_TAG_reference_type, baseType: !463, size: 64)
!463 = !DIDerivedType(tag: DW_TAG_const_type, baseType: !391)
!464 = !DISubprogram(name: "operator=", linkageName: "_ZN6ap_intILi8EEaSERVKS0_", scope: !391, file: !392, line: 150, type: !465, isLocal: false, isDefinition: false, scopeLine: 150, flags: DIFlagPrototyped, isOptimized: false)
!465 = !DISubroutineType(types: !466)
!466 = !{!461, !398, !467}
!467 = !DIDerivedType(tag: DW_TAG_reference_type, baseType: !468, size: 64)
!468 = !DIDerivedType(tag: DW_TAG_const_type, baseType: !469)
!469 = !DIDerivedType(tag: DW_TAG_volatile_type, baseType: !391)
!470 = !DISubprogram(name: "operator=", linkageName: "_ZNV6ap_intILi8EEaSERKS0_", scope: !391, file: !392, line: 156, type: !471, isLocal: false, isDefinition: false, scopeLine: 156, flags: DIFlagPrototyped, isOptimized: false)
!471 = !DISubroutineType(types: !472)
!472 = !{null, !473, !462}
!473 = !DIDerivedType(tag: DW_TAG_pointer_type, baseType: !469, size: 64, flags: DIFlagArtificial | DIFlagObjectPointer)
!474 = !DISubprogram(name: "operator=", linkageName: "_ZNV6ap_intILi8EEaSERVKS0_", scope: !391, file: !392, line: 160, type: !475, isLocal: false, isDefinition: false, scopeLine: 160, flags: DIFlagPrototyped, isOptimized: false)
!475 = !DISubroutineType(types: !476)
!476 = !{null, !473, !467}
!477 = !{!478}
!478 = !DITemplateValueParameter(name: "_AP_W", type: !32, value: i32 8)
!479 = !DISubprogram(name: "operator--", linkageName: "_ZN11ap_int_baseILi8ELb1EEmmEi", scope: !166, file: !167, line: 927, type: !381, isLocal: false, isDefinition: false, scopeLine: 927, flags: DIFlagPrototyped, isOptimized: false)
!480 = !DISubprogram(name: "operator+", linkageName: "_ZNK11ap_int_baseILi8ELb1EEpsEv", scope: !166, file: !167, line: 936, type: !481, isLocal: false, isDefinition: false, scopeLine: 936, flags: DIFlagPrototyped, isOptimized: false)
!481 = !DISubroutineType(types: !482)
!482 = !{!384, !184}
!483 = !DISubprogram(name: "operator-", linkageName: "_ZNK11ap_int_baseILi8ELb1EEngEv", scope: !166, file: !167, line: 939, type: !484, isLocal: false, isDefinition: false, scopeLine: 939, flags: DIFlagPrototyped, isOptimized: false)
!484 = !DISubroutineType(types: !485)
!485 = !{!486, !184}
!486 = !DIDerivedType(tag: DW_TAG_typedef, name: "minus", scope: !487, file: !167, line: 209, baseType: !491)
!487 = distinct !DICompositeType(tag: DW_TAG_structure_type, name: "RType<1, false>", scope: !166, file: !167, line: 180, size: 8, flags: DIFlagTypePassByValue, elements: !4, templateParams: !488, identifier: "_ZTSN11ap_int_baseILi8ELb1EE5RTypeILi1ELb0EEE")
!488 = !{!489, !490}
!489 = !DITemplateValueParameter(name: "_AP_W2", type: !32, value: i32 1)
!490 = !DITemplateValueParameter(name: "_AP_S2", type: !34, value: i8 0)
!491 = !DIDerivedType(tag: DW_TAG_typedef, name: "type", scope: !492, file: !167, line: 149, baseType: !495)
!492 = distinct !DICompositeType(tag: DW_TAG_structure_type, name: "_ap_int_factory<9, true>", file: !167, line: 149, size: 8, flags: DIFlagTypePassByValue, elements: !4, templateParams: !493, identifier: "_ZTS15_ap_int_factoryILi9ELb1EE")
!493 = !{!494, !388}
!494 = !DITemplateValueParameter(name: "_AP_W2", type: !32, value: i32 9)
!495 = distinct !DICompositeType(tag: DW_TAG_structure_type, name: "ap_int<9>", file: !392, line: 17, size: 16, flags: DIFlagTypePassByValue, elements: !496, templateParams: !3476, identifier: "_ZTS6ap_intILi9EE")
!496 = !{!497, !3926, !3930, !3933, !3936, !3939, !3942, !3945, !3948, !3951, !3954, !3957, !3960, !3963, !3966, !3969, !3972, !3975, !3978, !3981, !3984, !3990, !3996, !4000}
!497 = !DIDerivedType(tag: DW_TAG_inheritance, scope: !495, baseType: !498)
!498 = distinct !DICompositeType(tag: DW_TAG_structure_type, name: "ap_int_base<9, true>", file: !167, line: 154, size: 16, flags: DIFlagTypePassByValue, elements: !499, templateParams: !3812, identifier: "_ZTS11ap_int_baseILi9ELb1EE")
!499 = !{!500, !511, !512, !513, !518, !522, !525, !528, !531, !534, !537, !540, !543, !546, !549, !552, !555, !558, !561, !564, !567, !570, !573, !578, !582, !587, !588, !592, !595, !598, !601, !604, !607, !610, !613, !616, !619, !622, !625, !628, !631, !635, !638, !641, !644, !647, !650, !653, !654, !657, !660, !663, !666, !669, !672, !675, !678, !682, !683, !684, !685, !688, !689, !692, !695, !696, !699, !700, !701, !702, !703, !704, !705, !708, !709, !710, !716, !717, !720, !3145, !3146, !3147, !3813, !3816, !3819, !3822, !3823, !3824, !3913, !3914, !3915, !3916, !3917, !3918, !3919, !3920, !3921, !3922, !3923}
!500 = !DIDerivedType(tag: DW_TAG_inheritance, scope: !498, baseType: !501)
!501 = distinct !DICompositeType(tag: DW_TAG_structure_type, name: "ssdm_int<9, true>", file: !22, line: 514, size: 16, flags: DIFlagTypePassByValue, elements: !502, templateParams: !509, identifier: "_ZTS8ssdm_intILi9ELb1EE")
!502 = !{!503, !505}
!503 = !DIDerivedType(tag: DW_TAG_member, name: "V", scope: !501, file: !22, line: 516, baseType: !504, size: 9, align: 16)
!504 = !DIBasicType(name: "int9", size: 9, encoding: DW_ATE_signed)
!505 = !DISubprogram(name: "ssdm_int", scope: !501, file: !22, line: 517, type: !506, isLocal: false, isDefinition: false, scopeLine: 517, flags: DIFlagPrototyped, isOptimized: false)
!506 = !DISubroutineType(types: !507)
!507 = !{null, !508}
!508 = !DIDerivedType(tag: DW_TAG_pointer_type, baseType: !501, size: 64, flags: DIFlagArtificial | DIFlagObjectPointer)
!509 = !{!510, !33}
!510 = !DITemplateValueParameter(name: "_AP_N", type: !32, value: i32 9)
!511 = !DIDerivedType(tag: DW_TAG_member, name: "width", scope: !498, file: !167, line: 176, baseType: !36, flags: DIFlagStaticMember, extraData: i32 9)
!512 = !DIDerivedType(tag: DW_TAG_member, name: "sign_flag", scope: !498, file: !167, line: 177, baseType: !88, flags: DIFlagStaticMember, extraData: i1 true)
!513 = !DISubprogram(name: "countLeadingOnes", linkageName: "_ZNK11ap_int_baseILi9ELb1EE16countLeadingOnesEv", scope: !498, file: !167, line: 156, type: !514, isLocal: false, isDefinition: false, scopeLine: 156, flags: DIFlagPrivate | DIFlagPrototyped, isOptimized: false)
!514 = !DISubroutineType(types: !515)
!515 = !{!32, !516}
!516 = !DIDerivedType(tag: DW_TAG_pointer_type, baseType: !517, size: 64, flags: DIFlagArtificial | DIFlagObjectPointer)
!517 = !DIDerivedType(tag: DW_TAG_const_type, baseType: !498)
!518 = !DISubprogram(name: "ap_int_base", scope: !498, file: !167, line: 221, type: !519, isLocal: false, isDefinition: false, scopeLine: 221, flags: DIFlagPrototyped, isOptimized: false)
!519 = !DISubroutineType(types: !520)
!520 = !{null, !521}
!521 = !DIDerivedType(tag: DW_TAG_pointer_type, baseType: !498, size: 64, flags: DIFlagArtificial | DIFlagObjectPointer)
!522 = !DISubprogram(name: "ap_int_base", scope: !498, file: !167, line: 254, type: !523, isLocal: false, isDefinition: false, scopeLine: 254, flags: DIFlagPrototyped, isOptimized: false)
!523 = !DISubroutineType(types: !524)
!524 = !{null, !521, !88}
!525 = !DISubprogram(name: "ap_int_base", scope: !498, file: !167, line: 255, type: !526, isLocal: false, isDefinition: false, scopeLine: 255, flags: DIFlagPrototyped, isOptimized: false)
!526 = !DISubroutineType(types: !527)
!527 = !{null, !521, !79}
!528 = !DISubprogram(name: "ap_int_base", scope: !498, file: !167, line: 256, type: !529, isLocal: false, isDefinition: false, scopeLine: 256, flags: DIFlagPrototyped, isOptimized: false)
!529 = !DISubroutineType(types: !530)
!530 = !{null, !521, !95}
!531 = !DISubprogram(name: "ap_int_base", scope: !498, file: !167, line: 257, type: !532, isLocal: false, isDefinition: false, scopeLine: 257, flags: DIFlagPrototyped, isOptimized: false)
!532 = !DISubroutineType(types: !533)
!533 = !{null, !521, !99}
!534 = !DISubprogram(name: "ap_int_base", scope: !498, file: !167, line: 258, type: !535, isLocal: false, isDefinition: false, scopeLine: 258, flags: DIFlagPrototyped, isOptimized: false)
!535 = !DISubroutineType(types: !536)
!536 = !{null, !521, !104}
!537 = !DISubprogram(name: "ap_int_base", scope: !498, file: !167, line: 259, type: !538, isLocal: false, isDefinition: false, scopeLine: 259, flags: DIFlagPrototyped, isOptimized: false)
!538 = !DISubroutineType(types: !539)
!539 = !{null, !521, !108}
!540 = !DISubprogram(name: "ap_int_base", scope: !498, file: !167, line: 260, type: !541, isLocal: false, isDefinition: false, scopeLine: 260, flags: DIFlagPrototyped, isOptimized: false)
!541 = !DISubroutineType(types: !542)
!542 = !{null, !521, !36}
!543 = !DISubprogram(name: "ap_int_base", scope: !498, file: !167, line: 261, type: !544, isLocal: false, isDefinition: false, scopeLine: 261, flags: DIFlagPrototyped, isOptimized: false)
!544 = !DISubroutineType(types: !545)
!545 = !{null, !521, !116}
!546 = !DISubprogram(name: "ap_int_base", scope: !498, file: !167, line: 262, type: !547, isLocal: false, isDefinition: false, scopeLine: 262, flags: DIFlagPrototyped, isOptimized: false)
!547 = !DISubroutineType(types: !548)
!548 = !{null, !521, !121}
!549 = !DISubprogram(name: "ap_int_base", scope: !498, file: !167, line: 263, type: !550, isLocal: false, isDefinition: false, scopeLine: 263, flags: DIFlagPrototyped, isOptimized: false)
!550 = !DISubroutineType(types: !551)
!551 = !{null, !521, !126}
!552 = !DISubprogram(name: "ap_int_base", scope: !498, file: !167, line: 264, type: !553, isLocal: false, isDefinition: false, scopeLine: 264, flags: DIFlagPrototyped, isOptimized: false)
!553 = !DISubroutineType(types: !554)
!554 = !{null, !521, !131}
!555 = !DISubprogram(name: "ap_int_base", scope: !498, file: !167, line: 265, type: !556, isLocal: false, isDefinition: false, scopeLine: 265, flags: DIFlagPrototyped, isOptimized: false)
!556 = !DISubroutineType(types: !557)
!557 = !{null, !521, !137}
!558 = !DISubprogram(name: "ap_int_base", scope: !498, file: !167, line: 270, type: !559, isLocal: false, isDefinition: false, scopeLine: 270, flags: DIFlagPrototyped, isOptimized: false)
!559 = !DISubroutineType(types: !560)
!560 = !{null, !521, !151}
!561 = !DISubprogram(name: "ap_int_base", scope: !498, file: !167, line: 276, type: !562, isLocal: false, isDefinition: false, scopeLine: 276, flags: DIFlagPrototyped, isOptimized: false)
!562 = !DISubroutineType(types: !563)
!563 = !{null, !521, !147}
!564 = !DISubprogram(name: "ap_int_base", scope: !498, file: !167, line: 335, type: !565, isLocal: false, isDefinition: false, scopeLine: 335, flags: DIFlagPrototyped, isOptimized: false)
!565 = !DISubroutineType(types: !566)
!566 = !{null, !521, !143}
!567 = !DISubprogram(name: "ap_int_base", scope: !498, file: !167, line: 431, type: !568, isLocal: false, isDefinition: false, scopeLine: 431, flags: DIFlagPrototyped, isOptimized: false)
!568 = !DISubroutineType(types: !569)
!569 = !{null, !521, !78}
!570 = !DISubprogram(name: "ap_int_base", scope: !498, file: !167, line: 437, type: !571, isLocal: false, isDefinition: false, scopeLine: 437, flags: DIFlagPrototyped, isOptimized: false)
!571 = !DISubroutineType(types: !572)
!572 = !{null, !521, !78, !84}
!573 = !DISubprogram(name: "read", linkageName: "_ZNV11ap_int_baseILi9ELb1EE4readEv", scope: !498, file: !167, line: 459, type: !574, isLocal: false, isDefinition: false, scopeLine: 459, flags: DIFlagPrototyped, isOptimized: false)
!574 = !DISubroutineType(types: !575)
!575 = !{!498, !576}
!576 = !DIDerivedType(tag: DW_TAG_pointer_type, baseType: !577, size: 64, flags: DIFlagArtificial | DIFlagObjectPointer)
!577 = !DIDerivedType(tag: DW_TAG_volatile_type, baseType: !498)
!578 = !DISubprogram(name: "write", linkageName: "_ZNV11ap_int_baseILi9ELb1EE5writeERKS0_", scope: !498, file: !167, line: 466, type: !579, isLocal: false, isDefinition: false, scopeLine: 466, flags: DIFlagPrototyped, isOptimized: false)
!579 = !DISubroutineType(types: !580)
!580 = !{null, !576, !581}
!581 = !DIDerivedType(tag: DW_TAG_reference_type, baseType: !517, size: 64)
!582 = !DISubprogram(name: "operator=", linkageName: "_ZNV11ap_int_baseILi9ELb1EEaSERVKS0_", scope: !498, file: !167, line: 478, type: !583, isLocal: false, isDefinition: false, scopeLine: 478, flags: DIFlagPrototyped, isOptimized: false)
!583 = !DISubroutineType(types: !584)
!584 = !{null, !576, !585}
!585 = !DIDerivedType(tag: DW_TAG_reference_type, baseType: !586, size: 64)
!586 = !DIDerivedType(tag: DW_TAG_const_type, baseType: !577)
!587 = !DISubprogram(name: "operator=", linkageName: "_ZNV11ap_int_baseILi9ELb1EEaSERKS0_", scope: !498, file: !167, line: 488, type: !579, isLocal: false, isDefinition: false, scopeLine: 488, flags: DIFlagPrototyped, isOptimized: false)
!588 = !DISubprogram(name: "operator=", linkageName: "_ZN11ap_int_baseILi9ELb1EEaSERVKS0_", scope: !498, file: !167, line: 505, type: !589, isLocal: false, isDefinition: false, scopeLine: 505, flags: DIFlagPrototyped, isOptimized: false)
!589 = !DISubroutineType(types: !590)
!590 = !{!591, !521, !585}
!591 = !DIDerivedType(tag: DW_TAG_reference_type, baseType: !498, size: 64)
!592 = !DISubprogram(name: "operator=", linkageName: "_ZN11ap_int_baseILi9ELb1EEaSERKS0_", scope: !498, file: !167, line: 511, type: !593, isLocal: false, isDefinition: false, scopeLine: 511, flags: DIFlagPrototyped, isOptimized: false)
!593 = !DISubroutineType(types: !594)
!594 = !{!591, !521, !581}
!595 = !DISubprogram(name: "operator=", linkageName: "_ZN11ap_int_baseILi9ELb1EEaSEb", scope: !498, file: !167, line: 525, type: !596, isLocal: false, isDefinition: false, scopeLine: 525, flags: DIFlagPrototyped, isOptimized: false)
!596 = !DISubroutineType(types: !597)
!597 = !{!591, !521, !34}
!598 = !DISubprogram(name: "operator=", linkageName: "_ZN11ap_int_baseILi9ELb1EEaSEc", scope: !498, file: !167, line: 526, type: !599, isLocal: false, isDefinition: false, scopeLine: 526, flags: DIFlagPrototyped, isOptimized: false)
!599 = !DISubroutineType(types: !600)
!600 = !{!591, !521, !80}
!601 = !DISubprogram(name: "operator=", linkageName: "_ZN11ap_int_baseILi9ELb1EEaSEa", scope: !498, file: !167, line: 527, type: !602, isLocal: false, isDefinition: false, scopeLine: 527, flags: DIFlagPrototyped, isOptimized: false)
!602 = !DISubroutineType(types: !603)
!603 = !{!591, !521, !84}
!604 = !DISubprogram(name: "operator=", linkageName: "_ZN11ap_int_baseILi9ELb1EEaSEh", scope: !498, file: !167, line: 528, type: !605, isLocal: false, isDefinition: false, scopeLine: 528, flags: DIFlagPrototyped, isOptimized: false)
!605 = !DISubroutineType(types: !606)
!606 = !{!591, !521, !100}
!607 = !DISubprogram(name: "operator=", linkageName: "_ZN11ap_int_baseILi9ELb1EEaSEs", scope: !498, file: !167, line: 529, type: !608, isLocal: false, isDefinition: false, scopeLine: 529, flags: DIFlagPrototyped, isOptimized: false)
!608 = !DISubroutineType(types: !609)
!609 = !{!591, !521, !25}
!610 = !DISubprogram(name: "operator=", linkageName: "_ZN11ap_int_baseILi9ELb1EEaSEt", scope: !498, file: !167, line: 530, type: !611, isLocal: false, isDefinition: false, scopeLine: 530, flags: DIFlagPrototyped, isOptimized: false)
!611 = !DISubroutineType(types: !612)
!612 = !{!591, !521, !109}
!613 = !DISubprogram(name: "operator=", linkageName: "_ZN11ap_int_baseILi9ELb1EEaSEi", scope: !498, file: !167, line: 531, type: !614, isLocal: false, isDefinition: false, scopeLine: 531, flags: DIFlagPrototyped, isOptimized: false)
!614 = !DISubroutineType(types: !615)
!615 = !{!591, !521, !32}
!616 = !DISubprogram(name: "operator=", linkageName: "_ZN11ap_int_baseILi9ELb1EEaSEj", scope: !498, file: !167, line: 532, type: !617, isLocal: false, isDefinition: false, scopeLine: 532, flags: DIFlagPrototyped, isOptimized: false)
!617 = !DISubroutineType(types: !618)
!618 = !{!591, !521, !117}
!619 = !DISubprogram(name: "operator=", linkageName: "_ZN11ap_int_baseILi9ELb1EEaSEl", scope: !498, file: !167, line: 533, type: !620, isLocal: false, isDefinition: false, scopeLine: 533, flags: DIFlagPrototyped, isOptimized: false)
!620 = !DISubroutineType(types: !621)
!621 = !{!591, !521, !122}
!622 = !DISubprogram(name: "operator=", linkageName: "_ZN11ap_int_baseILi9ELb1EEaSEm", scope: !498, file: !167, line: 534, type: !623, isLocal: false, isDefinition: false, scopeLine: 534, flags: DIFlagPrototyped, isOptimized: false)
!623 = !DISubroutineType(types: !624)
!624 = !{!591, !521, !127}
!625 = !DISubprogram(name: "operator=", linkageName: "_ZN11ap_int_baseILi9ELb1EEaSEx", scope: !498, file: !167, line: 535, type: !626, isLocal: false, isDefinition: false, scopeLine: 535, flags: DIFlagPrototyped, isOptimized: false)
!626 = !DISubroutineType(types: !627)
!627 = !{!591, !521, !132}
!628 = !DISubprogram(name: "operator=", linkageName: "_ZN11ap_int_baseILi9ELb1EEaSEy", scope: !498, file: !167, line: 536, type: !629, isLocal: false, isDefinition: false, scopeLine: 536, flags: DIFlagPrototyped, isOptimized: false)
!629 = !DISubroutineType(types: !630)
!630 = !{!591, !521, !138}
!631 = !DISubprogram(name: "operator long long", linkageName: "_ZNK11ap_int_baseILi9ELb1EEcvxEv", scope: !498, file: !167, line: 587, type: !632, isLocal: false, isDefinition: false, scopeLine: 587, flags: DIFlagPrototyped, isOptimized: false)
!632 = !DISubroutineType(types: !633)
!633 = !{!634, !516}
!634 = !DIDerivedType(tag: DW_TAG_typedef, name: "RetType", scope: !498, file: !167, line: 174, baseType: !303)
!635 = !DISubprogram(name: "to_bool", linkageName: "_ZNK11ap_int_baseILi9ELb1EE7to_boolEv", scope: !498, file: !167, line: 592, type: !636, isLocal: false, isDefinition: false, scopeLine: 592, flags: DIFlagPrototyped, isOptimized: false)
!636 = !DISubroutineType(types: !637)
!637 = !{!34, !516}
!638 = !DISubprogram(name: "to_char", linkageName: "_ZNK11ap_int_baseILi9ELb1EE7to_charEv", scope: !498, file: !167, line: 593, type: !639, isLocal: false, isDefinition: false, scopeLine: 593, flags: DIFlagPrototyped, isOptimized: false)
!639 = !DISubroutineType(types: !640)
!640 = !{!80, !516}
!641 = !DISubprogram(name: "to_schar", linkageName: "_ZNK11ap_int_baseILi9ELb1EE8to_scharEv", scope: !498, file: !167, line: 594, type: !642, isLocal: false, isDefinition: false, scopeLine: 594, flags: DIFlagPrototyped, isOptimized: false)
!642 = !DISubroutineType(types: !643)
!643 = !{!84, !516}
!644 = !DISubprogram(name: "to_uchar", linkageName: "_ZNK11ap_int_baseILi9ELb1EE8to_ucharEv", scope: !498, file: !167, line: 595, type: !645, isLocal: false, isDefinition: false, scopeLine: 595, flags: DIFlagPrototyped, isOptimized: false)
!645 = !DISubroutineType(types: !646)
!646 = !{!100, !516}
!647 = !DISubprogram(name: "to_short", linkageName: "_ZNK11ap_int_baseILi9ELb1EE8to_shortEv", scope: !498, file: !167, line: 596, type: !648, isLocal: false, isDefinition: false, scopeLine: 596, flags: DIFlagPrototyped, isOptimized: false)
!648 = !DISubroutineType(types: !649)
!649 = !{!25, !516}
!650 = !DISubprogram(name: "to_ushort", linkageName: "_ZNK11ap_int_baseILi9ELb1EE9to_ushortEv", scope: !498, file: !167, line: 597, type: !651, isLocal: false, isDefinition: false, scopeLine: 597, flags: DIFlagPrototyped, isOptimized: false)
!651 = !DISubroutineType(types: !652)
!652 = !{!109, !516}
!653 = !DISubprogram(name: "to_int", linkageName: "_ZNK11ap_int_baseILi9ELb1EE6to_intEv", scope: !498, file: !167, line: 598, type: !514, isLocal: false, isDefinition: false, scopeLine: 598, flags: DIFlagPrototyped, isOptimized: false)
!654 = !DISubprogram(name: "to_uint", linkageName: "_ZNK11ap_int_baseILi9ELb1EE7to_uintEv", scope: !498, file: !167, line: 599, type: !655, isLocal: false, isDefinition: false, scopeLine: 599, flags: DIFlagPrototyped, isOptimized: false)
!655 = !DISubroutineType(types: !656)
!656 = !{!117, !516}
!657 = !DISubprogram(name: "to_long", linkageName: "_ZNK11ap_int_baseILi9ELb1EE7to_longEv", scope: !498, file: !167, line: 600, type: !658, isLocal: false, isDefinition: false, scopeLine: 600, flags: DIFlagPrototyped, isOptimized: false)
!658 = !DISubroutineType(types: !659)
!659 = !{!122, !516}
!660 = !DISubprogram(name: "to_ulong", linkageName: "_ZNK11ap_int_baseILi9ELb1EE8to_ulongEv", scope: !498, file: !167, line: 601, type: !661, isLocal: false, isDefinition: false, scopeLine: 601, flags: DIFlagPrototyped, isOptimized: false)
!661 = !DISubroutineType(types: !662)
!662 = !{!127, !516}
!663 = !DISubprogram(name: "to_int64", linkageName: "_ZNK11ap_int_baseILi9ELb1EE8to_int64Ev", scope: !498, file: !167, line: 602, type: !664, isLocal: false, isDefinition: false, scopeLine: 602, flags: DIFlagPrototyped, isOptimized: false)
!664 = !DISubroutineType(types: !665)
!665 = !{!132, !516}
!666 = !DISubprogram(name: "to_uint64", linkageName: "_ZNK11ap_int_baseILi9ELb1EE9to_uint64Ev", scope: !498, file: !167, line: 603, type: !667, isLocal: false, isDefinition: false, scopeLine: 603, flags: DIFlagPrototyped, isOptimized: false)
!667 = !DISubroutineType(types: !668)
!668 = !{!138, !516}
!669 = !DISubprogram(name: "to_half", linkageName: "_ZNK11ap_int_baseILi9ELb1EE7to_halfEv", scope: !498, file: !167, line: 604, type: !670, isLocal: false, isDefinition: false, scopeLine: 604, flags: DIFlagPrototyped, isOptimized: false)
!670 = !DISubroutineType(types: !671)
!671 = !{!151, !516}
!672 = !DISubprogram(name: "to_float", linkageName: "_ZNK11ap_int_baseILi9ELb1EE8to_floatEv", scope: !498, file: !167, line: 605, type: !673, isLocal: false, isDefinition: false, scopeLine: 605, flags: DIFlagPrototyped, isOptimized: false)
!673 = !DISubroutineType(types: !674)
!674 = !{!147, !516}
!675 = !DISubprogram(name: "to_double", linkageName: "_ZNK11ap_int_baseILi9ELb1EE9to_doubleEv", scope: !498, file: !167, line: 606, type: !676, isLocal: false, isDefinition: false, scopeLine: 606, flags: DIFlagPrototyped, isOptimized: false)
!676 = !DISubroutineType(types: !677)
!677 = !{!143, !516}
!678 = !DISubprogram(name: "length", linkageName: "_ZNVK11ap_int_baseILi9ELb1EE6lengthEv", scope: !498, file: !167, line: 630, type: !679, isLocal: false, isDefinition: false, scopeLine: 630, flags: DIFlagPrototyped, isOptimized: false)
!679 = !DISubroutineType(types: !680)
!680 = !{!32, !681}
!681 = !DIDerivedType(tag: DW_TAG_pointer_type, baseType: !586, size: 64, flags: DIFlagArtificial | DIFlagObjectPointer)
!682 = !DISubprogram(name: "iszero", linkageName: "_ZNK11ap_int_baseILi9ELb1EE6iszeroEv", scope: !498, file: !167, line: 633, type: !636, isLocal: false, isDefinition: false, scopeLine: 633, flags: DIFlagPrototyped, isOptimized: false)
!683 = !DISubprogram(name: "is_zero", linkageName: "_ZNK11ap_int_baseILi9ELb1EE7is_zeroEv", scope: !498, file: !167, line: 636, type: !636, isLocal: false, isDefinition: false, scopeLine: 636, flags: DIFlagPrototyped, isOptimized: false)
!684 = !DISubprogram(name: "sign", linkageName: "_ZNK11ap_int_baseILi9ELb1EE4signEv", scope: !498, file: !167, line: 639, type: !636, isLocal: false, isDefinition: false, scopeLine: 639, flags: DIFlagPrototyped, isOptimized: false)
!685 = !DISubprogram(name: "clear", linkageName: "_ZN11ap_int_baseILi9ELb1EE5clearEi", scope: !498, file: !167, line: 648, type: !686, isLocal: false, isDefinition: false, scopeLine: 648, flags: DIFlagPrototyped, isOptimized: false)
!686 = !DISubroutineType(types: !687)
!687 = !{null, !521, !32}
!688 = !DISubprogram(name: "invert", linkageName: "_ZN11ap_int_baseILi9ELb1EE6invertEi", scope: !498, file: !167, line: 654, type: !686, isLocal: false, isDefinition: false, scopeLine: 654, flags: DIFlagPrototyped, isOptimized: false)
!689 = !DISubprogram(name: "test", linkageName: "_ZNK11ap_int_baseILi9ELb1EE4testEi", scope: !498, file: !167, line: 663, type: !690, isLocal: false, isDefinition: false, scopeLine: 663, flags: DIFlagPrototyped, isOptimized: false)
!690 = !DISubroutineType(types: !691)
!691 = !{!34, !516, !32}
!692 = !DISubprogram(name: "get", linkageName: "_ZN11ap_int_baseILi9ELb1EE3getEv", scope: !498, file: !167, line: 669, type: !693, isLocal: false, isDefinition: false, scopeLine: 669, flags: DIFlagPrototyped, isOptimized: false)
!693 = !DISubroutineType(types: !694)
!694 = !{!591, !521}
!695 = !DISubprogram(name: "set", linkageName: "_ZN11ap_int_baseILi9ELb1EE3setEi", scope: !498, file: !167, line: 672, type: !686, isLocal: false, isDefinition: false, scopeLine: 672, flags: DIFlagPrototyped, isOptimized: false)
!696 = !DISubprogram(name: "set", linkageName: "_ZN11ap_int_baseILi9ELb1EE3setEib", scope: !498, file: !167, line: 678, type: !697, isLocal: false, isDefinition: false, scopeLine: 678, flags: DIFlagPrototyped, isOptimized: false)
!697 = !DISubroutineType(types: !698)
!698 = !{null, !521, !32, !34}
!699 = !DISubprogram(name: "lrotate", linkageName: "_ZN11ap_int_baseILi9ELb1EE7lrotateEi", scope: !498, file: !167, line: 685, type: !614, isLocal: false, isDefinition: false, scopeLine: 685, flags: DIFlagPrototyped, isOptimized: false)
!700 = !DISubprogram(name: "rrotate", linkageName: "_ZN11ap_int_baseILi9ELb1EE7rrotateEi", scope: !498, file: !167, line: 700, type: !614, isLocal: false, isDefinition: false, scopeLine: 700, flags: DIFlagPrototyped, isOptimized: false)
!701 = !DISubprogram(name: "reverse", linkageName: "_ZN11ap_int_baseILi9ELb1EE7reverseEv", scope: !498, file: !167, line: 715, type: !693, isLocal: false, isDefinition: false, scopeLine: 715, flags: DIFlagPrototyped, isOptimized: false)
!702 = !DISubprogram(name: "set_bit", linkageName: "_ZN11ap_int_baseILi9ELb1EE7set_bitEib", scope: !498, file: !167, line: 721, type: !697, isLocal: false, isDefinition: false, scopeLine: 721, flags: DIFlagPrototyped, isOptimized: false)
!703 = !DISubprogram(name: "get_bit", linkageName: "_ZNK11ap_int_baseILi9ELb1EE7get_bitEi", scope: !498, file: !167, line: 726, type: !690, isLocal: false, isDefinition: false, scopeLine: 726, flags: DIFlagPrototyped, isOptimized: false)
!704 = !DISubprogram(name: "b_not", linkageName: "_ZN11ap_int_baseILi9ELb1EE5b_notEv", scope: !498, file: !167, line: 731, type: !519, isLocal: false, isDefinition: false, scopeLine: 731, flags: DIFlagPrototyped, isOptimized: false)
!705 = !DISubprogram(name: "checkOverflowCsim", linkageName: "_ZNK11ap_int_baseILi9ELb1EE17checkOverflowCsimEibb", scope: !498, file: !167, line: 805, type: !706, isLocal: false, isDefinition: false, scopeLine: 805, flags: DIFlagPrototyped, isOptimized: false)
!706 = !DISubroutineType(types: !707)
!707 = !{!34, !516, !32, !34, !34}
!708 = !DISubprogram(name: "operator++", linkageName: "_ZN11ap_int_baseILi9ELb1EEppEv", scope: !498, file: !167, line: 910, type: !693, isLocal: false, isDefinition: false, scopeLine: 910, flags: DIFlagPrototyped, isOptimized: false)
!709 = !DISubprogram(name: "operator--", linkageName: "_ZN11ap_int_baseILi9ELb1EEmmEv", scope: !498, file: !167, line: 914, type: !693, isLocal: false, isDefinition: false, scopeLine: 914, flags: DIFlagPrototyped, isOptimized: false)
!710 = !DISubprogram(name: "operator++", linkageName: "_ZN11ap_int_baseILi9ELb1EEppEi", scope: !498, file: !167, line: 922, type: !711, isLocal: false, isDefinition: false, scopeLine: 922, flags: DIFlagPrototyped, isOptimized: false)
!711 = !DISubroutineType(types: !712)
!712 = !{!713, !521, !32}
!713 = !DIDerivedType(tag: DW_TAG_const_type, baseType: !714)
!714 = !DIDerivedType(tag: DW_TAG_typedef, name: "arg1", scope: !715, file: !167, line: 213, baseType: !491)
!715 = distinct !DICompositeType(tag: DW_TAG_structure_type, name: "RType<9, true>", scope: !498, file: !167, line: 180, size: 8, flags: DIFlagTypePassByValue, elements: !4, templateParams: !493, identifier: "_ZTSN11ap_int_baseILi9ELb1EE5RTypeILi9ELb1EEE")
!716 = !DISubprogram(name: "operator--", linkageName: "_ZN11ap_int_baseILi9ELb1EEmmEi", scope: !498, file: !167, line: 927, type: !711, isLocal: false, isDefinition: false, scopeLine: 927, flags: DIFlagPrototyped, isOptimized: false)
!717 = !DISubprogram(name: "operator+", linkageName: "_ZNK11ap_int_baseILi9ELb1EEpsEv", scope: !498, file: !167, line: 936, type: !718, isLocal: false, isDefinition: false, scopeLine: 936, flags: DIFlagPrototyped, isOptimized: false)
!718 = !DISubroutineType(types: !719)
!719 = !{!714, !516}
!720 = !DISubprogram(name: "operator-", linkageName: "_ZNK11ap_int_baseILi9ELb1EEngEv", scope: !498, file: !167, line: 939, type: !721, isLocal: false, isDefinition: false, scopeLine: 939, flags: DIFlagPrototyped, isOptimized: false)
!721 = !DISubroutineType(types: !722)
!722 = !{!723, !516}
!723 = !DIDerivedType(tag: DW_TAG_typedef, name: "minus", scope: !724, file: !167, line: 209, baseType: !725)
!724 = distinct !DICompositeType(tag: DW_TAG_structure_type, name: "RType<1, false>", scope: !498, file: !167, line: 180, size: 8, flags: DIFlagTypePassByValue, elements: !4, templateParams: !488, identifier: "_ZTSN11ap_int_baseILi9ELb1EE5RTypeILi1ELb0EEE")
!725 = !DIDerivedType(tag: DW_TAG_typedef, name: "type", scope: !726, file: !167, line: 149, baseType: !729)
!726 = distinct !DICompositeType(tag: DW_TAG_structure_type, name: "_ap_int_factory<10, true>", file: !167, line: 149, size: 8, flags: DIFlagTypePassByValue, elements: !4, templateParams: !727, identifier: "_ZTS15_ap_int_factoryILi10ELb1EE")
!727 = !{!728, !388}
!728 = !DITemplateValueParameter(name: "_AP_W2", type: !32, value: i32 10)
!729 = distinct !DICompositeType(tag: DW_TAG_structure_type, name: "ap_int<10>", file: !392, line: 17, size: 16, flags: DIFlagTypePassByValue, elements: !730, templateParams: !3144, identifier: "_ZTS6ap_intILi10EE")
!730 = !{!731, !3066, !3070, !3074, !3077, !3080, !3083, !3086, !3089, !3092, !3095, !3098, !3101, !3104, !3107, !3110, !3113, !3116, !3119, !3122, !3125, !3131, !3137, !3141}
!731 = !DIDerivedType(tag: DW_TAG_inheritance, scope: !729, baseType: !732)
!732 = distinct !DICompositeType(tag: DW_TAG_structure_type, name: "ap_int_base<10, true>", file: !733, line: 108, size: 16, flags: DIFlagTypePassByValue, elements: !734, templateParams: !3064, identifier: "_ZTS11ap_int_baseILi10ELb1EE")
!733 = !DIFile(filename: "r:/builds/2021.2/rdi_builds/continuous/2021_10_19_3367213/src/shared/hls/clib/include/header_files\5Cap_int_base.h", directory: "R:\5Cbuilds\5C2021.2\5Crdi_builds\5Ccontinuous\5C2021_10_19_3367213\5Csrc\5Cshared")
!734 = !{!735, !746, !747, !748, !753, !757, !760, !763, !766, !769, !772, !775, !778, !781, !784, !787, !791, !795, !798, !801, !804, !807, !810, !815, !819, !824, !825, !829, !832, !835, !838, !841, !844, !847, !850, !853, !856, !859, !862, !865, !868, !873, !876, !879, !882, !885, !888, !891, !892, !895, !898, !901, !904, !907, !910, !913, !916, !920, !921, !922, !923, !926, !927, !930, !933, !934, !937, !938, !939, !940, !941, !942, !943, !946, !947, !948, !955, !956, !959, !3030, !3031, !3032, !3036, !3039, !3042, !3045, !3046, !3047, !3051, !3052, !3053, !3054, !3055, !3056, !3057, !3058, !3059, !3060, !3061}
!735 = !DIDerivedType(tag: DW_TAG_inheritance, scope: !732, baseType: !736)
!736 = distinct !DICompositeType(tag: DW_TAG_structure_type, name: "ssdm_int<10, true>", file: !451, line: 468, size: 16, flags: DIFlagTypePassByValue, elements: !737, templateParams: !744, identifier: "_ZTS8ssdm_intILi10ELb1EE")
!737 = !{!738, !740}
!738 = !DIDerivedType(tag: DW_TAG_member, name: "V", scope: !736, file: !451, line: 470, baseType: !739, size: 10, align: 16)
!739 = !DIBasicType(name: "int10", size: 10, encoding: DW_ATE_signed)
!740 = !DISubprogram(name: "ssdm_int", scope: !736, file: !451, line: 471, type: !741, isLocal: false, isDefinition: false, scopeLine: 471, flags: DIFlagPrototyped, isOptimized: false)
!741 = !DISubroutineType(types: !742)
!742 = !{null, !743}
!743 = !DIDerivedType(tag: DW_TAG_pointer_type, baseType: !736, size: 64, flags: DIFlagArtificial | DIFlagObjectPointer)
!744 = !{!745, !33}
!745 = !DITemplateValueParameter(name: "_AP_N", type: !32, value: i32 10)
!746 = !DIDerivedType(tag: DW_TAG_member, name: "width", scope: !732, file: !733, line: 130, baseType: !36, flags: DIFlagStaticMember, extraData: i32 10)
!747 = !DIDerivedType(tag: DW_TAG_member, name: "sign_flag", scope: !732, file: !733, line: 131, baseType: !88, flags: DIFlagStaticMember, extraData: i1 true)
!748 = !DISubprogram(name: "countLeadingOnes", linkageName: "_ZNK11ap_int_baseILi10ELb1EE16countLeadingOnesEv", scope: !732, file: !733, line: 110, type: !749, isLocal: false, isDefinition: false, scopeLine: 110, flags: DIFlagPrivate | DIFlagPrototyped, isOptimized: false)
!749 = !DISubroutineType(types: !750)
!750 = !{!32, !751}
!751 = !DIDerivedType(tag: DW_TAG_pointer_type, baseType: !752, size: 64, flags: DIFlagArtificial | DIFlagObjectPointer)
!752 = !DIDerivedType(tag: DW_TAG_const_type, baseType: !732)
!753 = !DISubprogram(name: "ap_int_base", scope: !732, file: !733, line: 175, type: !754, isLocal: false, isDefinition: false, scopeLine: 175, flags: DIFlagPrototyped, isOptimized: false)
!754 = !DISubroutineType(types: !755)
!755 = !{null, !756}
!756 = !DIDerivedType(tag: DW_TAG_pointer_type, baseType: !732, size: 64, flags: DIFlagArtificial | DIFlagObjectPointer)
!757 = !DISubprogram(name: "ap_int_base", scope: !732, file: !733, line: 208, type: !758, isLocal: false, isDefinition: false, scopeLine: 208, flags: DIFlagPrototyped, isOptimized: false)
!758 = !DISubroutineType(types: !759)
!759 = !{null, !756, !88}
!760 = !DISubprogram(name: "ap_int_base", scope: !732, file: !733, line: 209, type: !761, isLocal: false, isDefinition: false, scopeLine: 209, flags: DIFlagPrototyped, isOptimized: false)
!761 = !DISubroutineType(types: !762)
!762 = !{null, !756, !79}
!763 = !DISubprogram(name: "ap_int_base", scope: !732, file: !733, line: 210, type: !764, isLocal: false, isDefinition: false, scopeLine: 210, flags: DIFlagPrototyped, isOptimized: false)
!764 = !DISubroutineType(types: !765)
!765 = !{null, !756, !95}
!766 = !DISubprogram(name: "ap_int_base", scope: !732, file: !733, line: 211, type: !767, isLocal: false, isDefinition: false, scopeLine: 211, flags: DIFlagPrototyped, isOptimized: false)
!767 = !DISubroutineType(types: !768)
!768 = !{null, !756, !99}
!769 = !DISubprogram(name: "ap_int_base", scope: !732, file: !733, line: 212, type: !770, isLocal: false, isDefinition: false, scopeLine: 212, flags: DIFlagPrototyped, isOptimized: false)
!770 = !DISubroutineType(types: !771)
!771 = !{null, !756, !104}
!772 = !DISubprogram(name: "ap_int_base", scope: !732, file: !733, line: 213, type: !773, isLocal: false, isDefinition: false, scopeLine: 213, flags: DIFlagPrototyped, isOptimized: false)
!773 = !DISubroutineType(types: !774)
!774 = !{null, !756, !108}
!775 = !DISubprogram(name: "ap_int_base", scope: !732, file: !733, line: 214, type: !776, isLocal: false, isDefinition: false, scopeLine: 214, flags: DIFlagPrototyped, isOptimized: false)
!776 = !DISubroutineType(types: !777)
!777 = !{null, !756, !36}
!778 = !DISubprogram(name: "ap_int_base", scope: !732, file: !733, line: 215, type: !779, isLocal: false, isDefinition: false, scopeLine: 215, flags: DIFlagPrototyped, isOptimized: false)
!779 = !DISubroutineType(types: !780)
!780 = !{null, !756, !116}
!781 = !DISubprogram(name: "ap_int_base", scope: !732, file: !733, line: 216, type: !782, isLocal: false, isDefinition: false, scopeLine: 216, flags: DIFlagPrototyped, isOptimized: false)
!782 = !DISubroutineType(types: !783)
!783 = !{null, !756, !121}
!784 = !DISubprogram(name: "ap_int_base", scope: !732, file: !733, line: 217, type: !785, isLocal: false, isDefinition: false, scopeLine: 217, flags: DIFlagPrototyped, isOptimized: false)
!785 = !DISubroutineType(types: !786)
!786 = !{null, !756, !126}
!787 = !DISubprogram(name: "ap_int_base", scope: !732, file: !733, line: 218, type: !788, isLocal: false, isDefinition: false, scopeLine: 218, flags: DIFlagPrototyped, isOptimized: false)
!788 = !DISubroutineType(types: !789)
!789 = !{null, !756, !790}
!790 = !DIDerivedType(tag: DW_TAG_const_type, baseType: !435)
!791 = !DISubprogram(name: "ap_int_base", scope: !732, file: !733, line: 219, type: !792, isLocal: false, isDefinition: false, scopeLine: 219, flags: DIFlagPrototyped, isOptimized: false)
!792 = !DISubroutineType(types: !793)
!793 = !{null, !756, !794}
!794 = !DIDerivedType(tag: DW_TAG_const_type, baseType: !440)
!795 = !DISubprogram(name: "ap_int_base", scope: !732, file: !733, line: 224, type: !796, isLocal: false, isDefinition: false, scopeLine: 224, flags: DIFlagPrototyped, isOptimized: false)
!796 = !DISubroutineType(types: !797)
!797 = !{null, !756, !450}
!798 = !DISubprogram(name: "ap_int_base", scope: !732, file: !733, line: 230, type: !799, isLocal: false, isDefinition: false, scopeLine: 230, flags: DIFlagPrototyped, isOptimized: false)
!799 = !DISubroutineType(types: !800)
!800 = !{null, !756, !147}
!801 = !DISubprogram(name: "ap_int_base", scope: !732, file: !733, line: 289, type: !802, isLocal: false, isDefinition: false, scopeLine: 289, flags: DIFlagPrototyped, isOptimized: false)
!802 = !DISubroutineType(types: !803)
!803 = !{null, !756, !143}
!804 = !DISubprogram(name: "ap_int_base", scope: !732, file: !733, line: 385, type: !805, isLocal: false, isDefinition: false, scopeLine: 385, flags: DIFlagPrototyped, isOptimized: false)
!805 = !DISubroutineType(types: !806)
!806 = !{null, !756, !78}
!807 = !DISubprogram(name: "ap_int_base", scope: !732, file: !733, line: 391, type: !808, isLocal: false, isDefinition: false, scopeLine: 391, flags: DIFlagPrototyped, isOptimized: false)
!808 = !DISubroutineType(types: !809)
!809 = !{null, !756, !78, !84}
!810 = !DISubprogram(name: "read", linkageName: "_ZNV11ap_int_baseILi10ELb1EE4readEv", scope: !732, file: !733, line: 413, type: !811, isLocal: false, isDefinition: false, scopeLine: 413, flags: DIFlagPrototyped, isOptimized: false)
!811 = !DISubroutineType(types: !812)
!812 = !{!732, !813}
!813 = !DIDerivedType(tag: DW_TAG_pointer_type, baseType: !814, size: 64, flags: DIFlagArtificial | DIFlagObjectPointer)
!814 = !DIDerivedType(tag: DW_TAG_volatile_type, baseType: !732)
!815 = !DISubprogram(name: "write", linkageName: "_ZNV11ap_int_baseILi10ELb1EE5writeERKS0_", scope: !732, file: !733, line: 420, type: !816, isLocal: false, isDefinition: false, scopeLine: 420, flags: DIFlagPrototyped, isOptimized: false)
!816 = !DISubroutineType(types: !817)
!817 = !{null, !813, !818}
!818 = !DIDerivedType(tag: DW_TAG_reference_type, baseType: !752, size: 64)
!819 = !DISubprogram(name: "operator=", linkageName: "_ZNV11ap_int_baseILi10ELb1EEaSERVKS0_", scope: !732, file: !733, line: 432, type: !820, isLocal: false, isDefinition: false, scopeLine: 432, flags: DIFlagPrototyped, isOptimized: false)
!820 = !DISubroutineType(types: !821)
!821 = !{null, !813, !822}
!822 = !DIDerivedType(tag: DW_TAG_reference_type, baseType: !823, size: 64)
!823 = !DIDerivedType(tag: DW_TAG_const_type, baseType: !814)
!824 = !DISubprogram(name: "operator=", linkageName: "_ZNV11ap_int_baseILi10ELb1EEaSERKS0_", scope: !732, file: !733, line: 442, type: !816, isLocal: false, isDefinition: false, scopeLine: 442, flags: DIFlagPrototyped, isOptimized: false)
!825 = !DISubprogram(name: "operator=", linkageName: "_ZN11ap_int_baseILi10ELb1EEaSERVKS0_", scope: !732, file: !733, line: 459, type: !826, isLocal: false, isDefinition: false, scopeLine: 459, flags: DIFlagPrototyped, isOptimized: false)
!826 = !DISubroutineType(types: !827)
!827 = !{!828, !756, !822}
!828 = !DIDerivedType(tag: DW_TAG_reference_type, baseType: !732, size: 64)
!829 = !DISubprogram(name: "operator=", linkageName: "_ZN11ap_int_baseILi10ELb1EEaSERKS0_", scope: !732, file: !733, line: 465, type: !830, isLocal: false, isDefinition: false, scopeLine: 465, flags: DIFlagPrototyped, isOptimized: false)
!830 = !DISubroutineType(types: !831)
!831 = !{!828, !756, !818}
!832 = !DISubprogram(name: "operator=", linkageName: "_ZN11ap_int_baseILi10ELb1EEaSEb", scope: !732, file: !733, line: 479, type: !833, isLocal: false, isDefinition: false, scopeLine: 479, flags: DIFlagPrototyped, isOptimized: false)
!833 = !DISubroutineType(types: !834)
!834 = !{!828, !756, !34}
!835 = !DISubprogram(name: "operator=", linkageName: "_ZN11ap_int_baseILi10ELb1EEaSEc", scope: !732, file: !733, line: 480, type: !836, isLocal: false, isDefinition: false, scopeLine: 480, flags: DIFlagPrototyped, isOptimized: false)
!836 = !DISubroutineType(types: !837)
!837 = !{!828, !756, !80}
!838 = !DISubprogram(name: "operator=", linkageName: "_ZN11ap_int_baseILi10ELb1EEaSEa", scope: !732, file: !733, line: 481, type: !839, isLocal: false, isDefinition: false, scopeLine: 481, flags: DIFlagPrototyped, isOptimized: false)
!839 = !DISubroutineType(types: !840)
!840 = !{!828, !756, !84}
!841 = !DISubprogram(name: "operator=", linkageName: "_ZN11ap_int_baseILi10ELb1EEaSEh", scope: !732, file: !733, line: 482, type: !842, isLocal: false, isDefinition: false, scopeLine: 482, flags: DIFlagPrototyped, isOptimized: false)
!842 = !DISubroutineType(types: !843)
!843 = !{!828, !756, !100}
!844 = !DISubprogram(name: "operator=", linkageName: "_ZN11ap_int_baseILi10ELb1EEaSEs", scope: !732, file: !733, line: 483, type: !845, isLocal: false, isDefinition: false, scopeLine: 483, flags: DIFlagPrototyped, isOptimized: false)
!845 = !DISubroutineType(types: !846)
!846 = !{!828, !756, !25}
!847 = !DISubprogram(name: "operator=", linkageName: "_ZN11ap_int_baseILi10ELb1EEaSEt", scope: !732, file: !733, line: 484, type: !848, isLocal: false, isDefinition: false, scopeLine: 484, flags: DIFlagPrototyped, isOptimized: false)
!848 = !DISubroutineType(types: !849)
!849 = !{!828, !756, !109}
!850 = !DISubprogram(name: "operator=", linkageName: "_ZN11ap_int_baseILi10ELb1EEaSEi", scope: !732, file: !733, line: 485, type: !851, isLocal: false, isDefinition: false, scopeLine: 485, flags: DIFlagPrototyped, isOptimized: false)
!851 = !DISubroutineType(types: !852)
!852 = !{!828, !756, !32}
!853 = !DISubprogram(name: "operator=", linkageName: "_ZN11ap_int_baseILi10ELb1EEaSEj", scope: !732, file: !733, line: 486, type: !854, isLocal: false, isDefinition: false, scopeLine: 486, flags: DIFlagPrototyped, isOptimized: false)
!854 = !DISubroutineType(types: !855)
!855 = !{!828, !756, !117}
!856 = !DISubprogram(name: "operator=", linkageName: "_ZN11ap_int_baseILi10ELb1EEaSEl", scope: !732, file: !733, line: 487, type: !857, isLocal: false, isDefinition: false, scopeLine: 487, flags: DIFlagPrototyped, isOptimized: false)
!857 = !DISubroutineType(types: !858)
!858 = !{!828, !756, !122}
!859 = !DISubprogram(name: "operator=", linkageName: "_ZN11ap_int_baseILi10ELb1EEaSEm", scope: !732, file: !733, line: 488, type: !860, isLocal: false, isDefinition: false, scopeLine: 488, flags: DIFlagPrototyped, isOptimized: false)
!860 = !DISubroutineType(types: !861)
!861 = !{!828, !756, !127}
!862 = !DISubprogram(name: "operator=", linkageName: "_ZN11ap_int_baseILi10ELb1EEaSEx", scope: !732, file: !733, line: 489, type: !863, isLocal: false, isDefinition: false, scopeLine: 489, flags: DIFlagPrototyped, isOptimized: false)
!863 = !DISubroutineType(types: !864)
!864 = !{!828, !756, !435}
!865 = !DISubprogram(name: "operator=", linkageName: "_ZN11ap_int_baseILi10ELb1EEaSEy", scope: !732, file: !733, line: 490, type: !866, isLocal: false, isDefinition: false, scopeLine: 490, flags: DIFlagPrototyped, isOptimized: false)
!866 = !DISubroutineType(types: !867)
!867 = !{!828, !756, !440}
!868 = !DISubprogram(name: "operator long long", linkageName: "_ZNK11ap_int_baseILi10ELb1EEcvxEv", scope: !732, file: !733, line: 541, type: !869, isLocal: false, isDefinition: false, scopeLine: 541, flags: DIFlagPrototyped, isOptimized: false)
!869 = !DISubroutineType(types: !870)
!870 = !{!871, !751}
!871 = !DIDerivedType(tag: DW_TAG_typedef, name: "RetType", scope: !732, file: !733, line: 128, baseType: !872)
!872 = !DIDerivedType(tag: DW_TAG_typedef, name: "Type", scope: !304, file: !733, line: 46, baseType: !435)
!873 = !DISubprogram(name: "to_bool", linkageName: "_ZNK11ap_int_baseILi10ELb1EE7to_boolEv", scope: !732, file: !733, line: 546, type: !874, isLocal: false, isDefinition: false, scopeLine: 546, flags: DIFlagPrototyped, isOptimized: false)
!874 = !DISubroutineType(types: !875)
!875 = !{!34, !751}
!876 = !DISubprogram(name: "to_char", linkageName: "_ZNK11ap_int_baseILi10ELb1EE7to_charEv", scope: !732, file: !733, line: 547, type: !877, isLocal: false, isDefinition: false, scopeLine: 547, flags: DIFlagPrototyped, isOptimized: false)
!877 = !DISubroutineType(types: !878)
!878 = !{!80, !751}
!879 = !DISubprogram(name: "to_schar", linkageName: "_ZNK11ap_int_baseILi10ELb1EE8to_scharEv", scope: !732, file: !733, line: 548, type: !880, isLocal: false, isDefinition: false, scopeLine: 548, flags: DIFlagPrototyped, isOptimized: false)
!880 = !DISubroutineType(types: !881)
!881 = !{!84, !751}
!882 = !DISubprogram(name: "to_uchar", linkageName: "_ZNK11ap_int_baseILi10ELb1EE8to_ucharEv", scope: !732, file: !733, line: 549, type: !883, isLocal: false, isDefinition: false, scopeLine: 549, flags: DIFlagPrototyped, isOptimized: false)
!883 = !DISubroutineType(types: !884)
!884 = !{!100, !751}
!885 = !DISubprogram(name: "to_short", linkageName: "_ZNK11ap_int_baseILi10ELb1EE8to_shortEv", scope: !732, file: !733, line: 550, type: !886, isLocal: false, isDefinition: false, scopeLine: 550, flags: DIFlagPrototyped, isOptimized: false)
!886 = !DISubroutineType(types: !887)
!887 = !{!25, !751}
!888 = !DISubprogram(name: "to_ushort", linkageName: "_ZNK11ap_int_baseILi10ELb1EE9to_ushortEv", scope: !732, file: !733, line: 551, type: !889, isLocal: false, isDefinition: false, scopeLine: 551, flags: DIFlagPrototyped, isOptimized: false)
!889 = !DISubroutineType(types: !890)
!890 = !{!109, !751}
!891 = !DISubprogram(name: "to_int", linkageName: "_ZNK11ap_int_baseILi10ELb1EE6to_intEv", scope: !732, file: !733, line: 552, type: !749, isLocal: false, isDefinition: false, scopeLine: 552, flags: DIFlagPrototyped, isOptimized: false)
!892 = !DISubprogram(name: "to_uint", linkageName: "_ZNK11ap_int_baseILi10ELb1EE7to_uintEv", scope: !732, file: !733, line: 553, type: !893, isLocal: false, isDefinition: false, scopeLine: 553, flags: DIFlagPrototyped, isOptimized: false)
!893 = !DISubroutineType(types: !894)
!894 = !{!117, !751}
!895 = !DISubprogram(name: "to_long", linkageName: "_ZNK11ap_int_baseILi10ELb1EE7to_longEv", scope: !732, file: !733, line: 554, type: !896, isLocal: false, isDefinition: false, scopeLine: 554, flags: DIFlagPrototyped, isOptimized: false)
!896 = !DISubroutineType(types: !897)
!897 = !{!122, !751}
!898 = !DISubprogram(name: "to_ulong", linkageName: "_ZNK11ap_int_baseILi10ELb1EE8to_ulongEv", scope: !732, file: !733, line: 555, type: !899, isLocal: false, isDefinition: false, scopeLine: 555, flags: DIFlagPrototyped, isOptimized: false)
!899 = !DISubroutineType(types: !900)
!900 = !{!127, !751}
!901 = !DISubprogram(name: "to_int64", linkageName: "_ZNK11ap_int_baseILi10ELb1EE8to_int64Ev", scope: !732, file: !733, line: 556, type: !902, isLocal: false, isDefinition: false, scopeLine: 556, flags: DIFlagPrototyped, isOptimized: false)
!902 = !DISubroutineType(types: !903)
!903 = !{!435, !751}
!904 = !DISubprogram(name: "to_uint64", linkageName: "_ZNK11ap_int_baseILi10ELb1EE9to_uint64Ev", scope: !732, file: !733, line: 557, type: !905, isLocal: false, isDefinition: false, scopeLine: 557, flags: DIFlagPrototyped, isOptimized: false)
!905 = !DISubroutineType(types: !906)
!906 = !{!440, !751}
!907 = !DISubprogram(name: "to_half", linkageName: "_ZNK11ap_int_baseILi10ELb1EE7to_halfEv", scope: !732, file: !733, line: 558, type: !908, isLocal: false, isDefinition: false, scopeLine: 558, flags: DIFlagPrototyped, isOptimized: false)
!908 = !DISubroutineType(types: !909)
!909 = !{!450, !751}
!910 = !DISubprogram(name: "to_float", linkageName: "_ZNK11ap_int_baseILi10ELb1EE8to_floatEv", scope: !732, file: !733, line: 559, type: !911, isLocal: false, isDefinition: false, scopeLine: 559, flags: DIFlagPrototyped, isOptimized: false)
!911 = !DISubroutineType(types: !912)
!912 = !{!147, !751}
!913 = !DISubprogram(name: "to_double", linkageName: "_ZNK11ap_int_baseILi10ELb1EE9to_doubleEv", scope: !732, file: !733, line: 560, type: !914, isLocal: false, isDefinition: false, scopeLine: 560, flags: DIFlagPrototyped, isOptimized: false)
!914 = !DISubroutineType(types: !915)
!915 = !{!143, !751}
!916 = !DISubprogram(name: "length", linkageName: "_ZNVK11ap_int_baseILi10ELb1EE6lengthEv", scope: !732, file: !733, line: 584, type: !917, isLocal: false, isDefinition: false, scopeLine: 584, flags: DIFlagPrototyped, isOptimized: false)
!917 = !DISubroutineType(types: !918)
!918 = !{!32, !919}
!919 = !DIDerivedType(tag: DW_TAG_pointer_type, baseType: !823, size: 64, flags: DIFlagArtificial | DIFlagObjectPointer)
!920 = !DISubprogram(name: "iszero", linkageName: "_ZNK11ap_int_baseILi10ELb1EE6iszeroEv", scope: !732, file: !733, line: 587, type: !874, isLocal: false, isDefinition: false, scopeLine: 587, flags: DIFlagPrototyped, isOptimized: false)
!921 = !DISubprogram(name: "is_zero", linkageName: "_ZNK11ap_int_baseILi10ELb1EE7is_zeroEv", scope: !732, file: !733, line: 590, type: !874, isLocal: false, isDefinition: false, scopeLine: 590, flags: DIFlagPrototyped, isOptimized: false)
!922 = !DISubprogram(name: "sign", linkageName: "_ZNK11ap_int_baseILi10ELb1EE4signEv", scope: !732, file: !733, line: 593, type: !874, isLocal: false, isDefinition: false, scopeLine: 593, flags: DIFlagPrototyped, isOptimized: false)
!923 = !DISubprogram(name: "clear", linkageName: "_ZN11ap_int_baseILi10ELb1EE5clearEi", scope: !732, file: !733, line: 602, type: !924, isLocal: false, isDefinition: false, scopeLine: 602, flags: DIFlagPrototyped, isOptimized: false)
!924 = !DISubroutineType(types: !925)
!925 = !{null, !756, !32}
!926 = !DISubprogram(name: "invert", linkageName: "_ZN11ap_int_baseILi10ELb1EE6invertEi", scope: !732, file: !733, line: 608, type: !924, isLocal: false, isDefinition: false, scopeLine: 608, flags: DIFlagPrototyped, isOptimized: false)
!927 = !DISubprogram(name: "test", linkageName: "_ZNK11ap_int_baseILi10ELb1EE4testEi", scope: !732, file: !733, line: 617, type: !928, isLocal: false, isDefinition: false, scopeLine: 617, flags: DIFlagPrototyped, isOptimized: false)
!928 = !DISubroutineType(types: !929)
!929 = !{!34, !751, !32}
!930 = !DISubprogram(name: "get", linkageName: "_ZN11ap_int_baseILi10ELb1EE3getEv", scope: !732, file: !733, line: 623, type: !931, isLocal: false, isDefinition: false, scopeLine: 623, flags: DIFlagPrototyped, isOptimized: false)
!931 = !DISubroutineType(types: !932)
!932 = !{!828, !756}
!933 = !DISubprogram(name: "set", linkageName: "_ZN11ap_int_baseILi10ELb1EE3setEi", scope: !732, file: !733, line: 626, type: !924, isLocal: false, isDefinition: false, scopeLine: 626, flags: DIFlagPrototyped, isOptimized: false)
!934 = !DISubprogram(name: "set", linkageName: "_ZN11ap_int_baseILi10ELb1EE3setEib", scope: !732, file: !733, line: 632, type: !935, isLocal: false, isDefinition: false, scopeLine: 632, flags: DIFlagPrototyped, isOptimized: false)
!935 = !DISubroutineType(types: !936)
!936 = !{null, !756, !32, !34}
!937 = !DISubprogram(name: "lrotate", linkageName: "_ZN11ap_int_baseILi10ELb1EE7lrotateEi", scope: !732, file: !733, line: 639, type: !851, isLocal: false, isDefinition: false, scopeLine: 639, flags: DIFlagPrototyped, isOptimized: false)
!938 = !DISubprogram(name: "rrotate", linkageName: "_ZN11ap_int_baseILi10ELb1EE7rrotateEi", scope: !732, file: !733, line: 654, type: !851, isLocal: false, isDefinition: false, scopeLine: 654, flags: DIFlagPrototyped, isOptimized: false)
!939 = !DISubprogram(name: "reverse", linkageName: "_ZN11ap_int_baseILi10ELb1EE7reverseEv", scope: !732, file: !733, line: 669, type: !931, isLocal: false, isDefinition: false, scopeLine: 669, flags: DIFlagPrototyped, isOptimized: false)
!940 = !DISubprogram(name: "set_bit", linkageName: "_ZN11ap_int_baseILi10ELb1EE7set_bitEib", scope: !732, file: !733, line: 675, type: !935, isLocal: false, isDefinition: false, scopeLine: 675, flags: DIFlagPrototyped, isOptimized: false)
!941 = !DISubprogram(name: "get_bit", linkageName: "_ZNK11ap_int_baseILi10ELb1EE7get_bitEi", scope: !732, file: !733, line: 680, type: !928, isLocal: false, isDefinition: false, scopeLine: 680, flags: DIFlagPrototyped, isOptimized: false)
!942 = !DISubprogram(name: "b_not", linkageName: "_ZN11ap_int_baseILi10ELb1EE5b_notEv", scope: !732, file: !733, line: 685, type: !754, isLocal: false, isDefinition: false, scopeLine: 685, flags: DIFlagPrototyped, isOptimized: false)
!943 = !DISubprogram(name: "checkOverflowCsim", linkageName: "_ZNK11ap_int_baseILi10ELb1EE17checkOverflowCsimEibb", scope: !732, file: !733, line: 759, type: !944, isLocal: false, isDefinition: false, scopeLine: 759, flags: DIFlagPrototyped, isOptimized: false)
!944 = !DISubroutineType(types: !945)
!945 = !{!34, !751, !32, !34, !34}
!946 = !DISubprogram(name: "operator++", linkageName: "_ZN11ap_int_baseILi10ELb1EEppEv", scope: !732, file: !733, line: 864, type: !931, isLocal: false, isDefinition: false, scopeLine: 864, flags: DIFlagPrototyped, isOptimized: false)
!947 = !DISubprogram(name: "operator--", linkageName: "_ZN11ap_int_baseILi10ELb1EEmmEv", scope: !732, file: !733, line: 868, type: !931, isLocal: false, isDefinition: false, scopeLine: 868, flags: DIFlagPrototyped, isOptimized: false)
!948 = !DISubprogram(name: "operator++", linkageName: "_ZN11ap_int_baseILi10ELb1EEppEi", scope: !732, file: !733, line: 876, type: !949, isLocal: false, isDefinition: false, scopeLine: 876, flags: DIFlagPrototyped, isOptimized: false)
!949 = !DISubroutineType(types: !950)
!950 = !{!951, !756, !32}
!951 = !DIDerivedType(tag: DW_TAG_const_type, baseType: !952)
!952 = !DIDerivedType(tag: DW_TAG_typedef, name: "arg1", scope: !953, file: !733, line: 167, baseType: !954)
!953 = distinct !DICompositeType(tag: DW_TAG_structure_type, name: "RType<10, true>", scope: !732, file: !733, line: 134, size: 8, flags: DIFlagTypePassByValue, elements: !4, templateParams: !727, identifier: "_ZTSN11ap_int_baseILi10ELb1EE5RTypeILi10ELb1EEE")
!954 = !DIDerivedType(tag: DW_TAG_typedef, name: "type", scope: !726, file: !733, line: 103, baseType: !729)
!955 = !DISubprogram(name: "operator--", linkageName: "_ZN11ap_int_baseILi10ELb1EEmmEi", scope: !732, file: !733, line: 881, type: !949, isLocal: false, isDefinition: false, scopeLine: 881, flags: DIFlagPrototyped, isOptimized: false)
!956 = !DISubprogram(name: "operator+", linkageName: "_ZNK11ap_int_baseILi10ELb1EEpsEv", scope: !732, file: !733, line: 890, type: !957, isLocal: false, isDefinition: false, scopeLine: 890, flags: DIFlagPrototyped, isOptimized: false)
!957 = !DISubroutineType(types: !958)
!958 = !{!952, !751}
!959 = !DISubprogram(name: "operator-", linkageName: "_ZNK11ap_int_baseILi10ELb1EEngEv", scope: !732, file: !733, line: 893, type: !960, isLocal: false, isDefinition: false, scopeLine: 893, flags: DIFlagPrototyped, isOptimized: false)
!960 = !DISubroutineType(types: !961)
!961 = !{!962, !751}
!962 = !DIDerivedType(tag: DW_TAG_typedef, name: "minus", scope: !963, file: !733, line: 163, baseType: !964)
!963 = distinct !DICompositeType(tag: DW_TAG_structure_type, name: "RType<1, false>", scope: !732, file: !733, line: 134, size: 8, flags: DIFlagTypePassByValue, elements: !4, templateParams: !488, identifier: "_ZTSN11ap_int_baseILi10ELb1EE5RTypeILi1ELb0EEE")
!964 = !DIDerivedType(tag: DW_TAG_typedef, name: "type", scope: !965, file: !733, line: 103, baseType: !968)
!965 = distinct !DICompositeType(tag: DW_TAG_structure_type, name: "_ap_int_factory<11, true>", file: !167, line: 149, size: 8, flags: DIFlagTypePassByValue, elements: !4, templateParams: !966, identifier: "_ZTS15_ap_int_factoryILi11ELb1EE")
!966 = !{!967, !388}
!967 = !DITemplateValueParameter(name: "_AP_W2", type: !32, value: i32 11)
!968 = distinct !DICompositeType(tag: DW_TAG_structure_type, name: "ap_int<11>", file: !969, line: 63, size: 16, flags: DIFlagTypePassByValue, elements: !970, templateParams: !3029, identifier: "_ZTS6ap_intILi11EE")
!969 = !DIFile(filename: "D:/Xilinx/Vitis_HLS/2021.2/common/technology/autopilot\5Cap_int.h", directory: "D:\5CNTHU\5CHLS\5CFINAL\5CCHANNEL_KBEST")
!970 = !{!971, !2951, !2955, !2959, !2962, !2965, !2968, !2971, !2974, !2977, !2980, !2983, !2986, !2989, !2992, !2995, !2998, !3001, !3004, !3007, !3010, !3016, !3022, !3026}
!971 = !DIDerivedType(tag: DW_TAG_inheritance, scope: !968, baseType: !972)
!972 = distinct !DICompositeType(tag: DW_TAG_structure_type, name: "ap_int_base<11, true>", file: !167, line: 154, size: 16, flags: DIFlagTypePassByValue, elements: !973, templateParams: !2949, identifier: "_ZTS11ap_int_baseILi11ELb1EE")
!973 = !{!974, !985, !986, !987, !992, !996, !999, !1002, !1005, !1008, !1011, !1014, !1017, !1020, !1023, !1026, !1029, !1032, !1035, !1038, !1041, !1044, !1047, !1052, !1056, !1061, !1062, !1066, !1069, !1072, !1075, !1078, !1081, !1084, !1087, !1090, !1093, !1096, !1099, !1102, !1105, !1109, !1112, !1115, !1118, !1121, !1124, !1127, !1128, !1131, !1134, !1137, !1140, !1143, !1146, !1149, !1152, !1156, !1157, !1158, !1159, !1162, !1163, !1166, !1169, !1170, !1173, !1174, !1175, !1176, !1177, !1178, !1179, !1182, !1183, !1184, !1191, !1192, !1195, !2915, !2916, !2917, !2921, !2924, !2927, !2930, !2931, !2932, !2936, !2937, !2938, !2939, !2940, !2941, !2942, !2943, !2944, !2945, !2946}
!974 = !DIDerivedType(tag: DW_TAG_inheritance, scope: !972, baseType: !975)
!975 = distinct !DICompositeType(tag: DW_TAG_structure_type, name: "ssdm_int<11, true>", file: !22, line: 514, size: 16, flags: DIFlagTypePassByValue, elements: !976, templateParams: !983, identifier: "_ZTS8ssdm_intILi11ELb1EE")
!976 = !{!977, !979}
!977 = !DIDerivedType(tag: DW_TAG_member, name: "V", scope: !975, file: !22, line: 516, baseType: !978, size: 11, align: 16)
!978 = !DIBasicType(name: "int11", size: 11, encoding: DW_ATE_signed)
!979 = !DISubprogram(name: "ssdm_int", scope: !975, file: !22, line: 517, type: !980, isLocal: false, isDefinition: false, scopeLine: 517, flags: DIFlagPrototyped, isOptimized: false)
!980 = !DISubroutineType(types: !981)
!981 = !{null, !982}
!982 = !DIDerivedType(tag: DW_TAG_pointer_type, baseType: !975, size: 64, flags: DIFlagArtificial | DIFlagObjectPointer)
!983 = !{!984, !33}
!984 = !DITemplateValueParameter(name: "_AP_N", type: !32, value: i32 11)
!985 = !DIDerivedType(tag: DW_TAG_member, name: "width", scope: !972, file: !167, line: 176, baseType: !36, flags: DIFlagStaticMember, extraData: i32 11)
!986 = !DIDerivedType(tag: DW_TAG_member, name: "sign_flag", scope: !972, file: !167, line: 177, baseType: !88, flags: DIFlagStaticMember, extraData: i1 true)
!987 = !DISubprogram(name: "countLeadingOnes", linkageName: "_ZNK11ap_int_baseILi11ELb1EE16countLeadingOnesEv", scope: !972, file: !167, line: 156, type: !988, isLocal: false, isDefinition: false, scopeLine: 156, flags: DIFlagPrivate | DIFlagPrototyped, isOptimized: false)
!988 = !DISubroutineType(types: !989)
!989 = !{!32, !990}
!990 = !DIDerivedType(tag: DW_TAG_pointer_type, baseType: !991, size: 64, flags: DIFlagArtificial | DIFlagObjectPointer)
!991 = !DIDerivedType(tag: DW_TAG_const_type, baseType: !972)
!992 = !DISubprogram(name: "ap_int_base", scope: !972, file: !167, line: 221, type: !993, isLocal: false, isDefinition: false, scopeLine: 221, flags: DIFlagPrototyped, isOptimized: false)
!993 = !DISubroutineType(types: !994)
!994 = !{null, !995}
!995 = !DIDerivedType(tag: DW_TAG_pointer_type, baseType: !972, size: 64, flags: DIFlagArtificial | DIFlagObjectPointer)
!996 = !DISubprogram(name: "ap_int_base", scope: !972, file: !167, line: 254, type: !997, isLocal: false, isDefinition: false, scopeLine: 254, flags: DIFlagPrototyped, isOptimized: false)
!997 = !DISubroutineType(types: !998)
!998 = !{null, !995, !88}
!999 = !DISubprogram(name: "ap_int_base", scope: !972, file: !167, line: 255, type: !1000, isLocal: false, isDefinition: false, scopeLine: 255, flags: DIFlagPrototyped, isOptimized: false)
!1000 = !DISubroutineType(types: !1001)
!1001 = !{null, !995, !79}
!1002 = !DISubprogram(name: "ap_int_base", scope: !972, file: !167, line: 256, type: !1003, isLocal: false, isDefinition: false, scopeLine: 256, flags: DIFlagPrototyped, isOptimized: false)
!1003 = !DISubroutineType(types: !1004)
!1004 = !{null, !995, !95}
!1005 = !DISubprogram(name: "ap_int_base", scope: !972, file: !167, line: 257, type: !1006, isLocal: false, isDefinition: false, scopeLine: 257, flags: DIFlagPrototyped, isOptimized: false)
!1006 = !DISubroutineType(types: !1007)
!1007 = !{null, !995, !99}
!1008 = !DISubprogram(name: "ap_int_base", scope: !972, file: !167, line: 258, type: !1009, isLocal: false, isDefinition: false, scopeLine: 258, flags: DIFlagPrototyped, isOptimized: false)
!1009 = !DISubroutineType(types: !1010)
!1010 = !{null, !995, !104}
!1011 = !DISubprogram(name: "ap_int_base", scope: !972, file: !167, line: 259, type: !1012, isLocal: false, isDefinition: false, scopeLine: 259, flags: DIFlagPrototyped, isOptimized: false)
!1012 = !DISubroutineType(types: !1013)
!1013 = !{null, !995, !108}
!1014 = !DISubprogram(name: "ap_int_base", scope: !972, file: !167, line: 260, type: !1015, isLocal: false, isDefinition: false, scopeLine: 260, flags: DIFlagPrototyped, isOptimized: false)
!1015 = !DISubroutineType(types: !1016)
!1016 = !{null, !995, !36}
!1017 = !DISubprogram(name: "ap_int_base", scope: !972, file: !167, line: 261, type: !1018, isLocal: false, isDefinition: false, scopeLine: 261, flags: DIFlagPrototyped, isOptimized: false)
!1018 = !DISubroutineType(types: !1019)
!1019 = !{null, !995, !116}
!1020 = !DISubprogram(name: "ap_int_base", scope: !972, file: !167, line: 262, type: !1021, isLocal: false, isDefinition: false, scopeLine: 262, flags: DIFlagPrototyped, isOptimized: false)
!1021 = !DISubroutineType(types: !1022)
!1022 = !{null, !995, !121}
!1023 = !DISubprogram(name: "ap_int_base", scope: !972, file: !167, line: 263, type: !1024, isLocal: false, isDefinition: false, scopeLine: 263, flags: DIFlagPrototyped, isOptimized: false)
!1024 = !DISubroutineType(types: !1025)
!1025 = !{null, !995, !126}
!1026 = !DISubprogram(name: "ap_int_base", scope: !972, file: !167, line: 264, type: !1027, isLocal: false, isDefinition: false, scopeLine: 264, flags: DIFlagPrototyped, isOptimized: false)
!1027 = !DISubroutineType(types: !1028)
!1028 = !{null, !995, !131}
!1029 = !DISubprogram(name: "ap_int_base", scope: !972, file: !167, line: 265, type: !1030, isLocal: false, isDefinition: false, scopeLine: 265, flags: DIFlagPrototyped, isOptimized: false)
!1030 = !DISubroutineType(types: !1031)
!1031 = !{null, !995, !137}
!1032 = !DISubprogram(name: "ap_int_base", scope: !972, file: !167, line: 270, type: !1033, isLocal: false, isDefinition: false, scopeLine: 270, flags: DIFlagPrototyped, isOptimized: false)
!1033 = !DISubroutineType(types: !1034)
!1034 = !{null, !995, !151}
!1035 = !DISubprogram(name: "ap_int_base", scope: !972, file: !167, line: 276, type: !1036, isLocal: false, isDefinition: false, scopeLine: 276, flags: DIFlagPrototyped, isOptimized: false)
!1036 = !DISubroutineType(types: !1037)
!1037 = !{null, !995, !147}
!1038 = !DISubprogram(name: "ap_int_base", scope: !972, file: !167, line: 335, type: !1039, isLocal: false, isDefinition: false, scopeLine: 335, flags: DIFlagPrototyped, isOptimized: false)
!1039 = !DISubroutineType(types: !1040)
!1040 = !{null, !995, !143}
!1041 = !DISubprogram(name: "ap_int_base", scope: !972, file: !167, line: 431, type: !1042, isLocal: false, isDefinition: false, scopeLine: 431, flags: DIFlagPrototyped, isOptimized: false)
!1042 = !DISubroutineType(types: !1043)
!1043 = !{null, !995, !78}
!1044 = !DISubprogram(name: "ap_int_base", scope: !972, file: !167, line: 437, type: !1045, isLocal: false, isDefinition: false, scopeLine: 437, flags: DIFlagPrototyped, isOptimized: false)
!1045 = !DISubroutineType(types: !1046)
!1046 = !{null, !995, !78, !84}
!1047 = !DISubprogram(name: "read", linkageName: "_ZNV11ap_int_baseILi11ELb1EE4readEv", scope: !972, file: !167, line: 459, type: !1048, isLocal: false, isDefinition: false, scopeLine: 459, flags: DIFlagPrototyped, isOptimized: false)
!1048 = !DISubroutineType(types: !1049)
!1049 = !{!972, !1050}
!1050 = !DIDerivedType(tag: DW_TAG_pointer_type, baseType: !1051, size: 64, flags: DIFlagArtificial | DIFlagObjectPointer)
!1051 = !DIDerivedType(tag: DW_TAG_volatile_type, baseType: !972)
!1052 = !DISubprogram(name: "write", linkageName: "_ZNV11ap_int_baseILi11ELb1EE5writeERKS0_", scope: !972, file: !167, line: 466, type: !1053, isLocal: false, isDefinition: false, scopeLine: 466, flags: DIFlagPrototyped, isOptimized: false)
!1053 = !DISubroutineType(types: !1054)
!1054 = !{null, !1050, !1055}
!1055 = !DIDerivedType(tag: DW_TAG_reference_type, baseType: !991, size: 64)
!1056 = !DISubprogram(name: "operator=", linkageName: "_ZNV11ap_int_baseILi11ELb1EEaSERVKS0_", scope: !972, file: !167, line: 478, type: !1057, isLocal: false, isDefinition: false, scopeLine: 478, flags: DIFlagPrototyped, isOptimized: false)
!1057 = !DISubroutineType(types: !1058)
!1058 = !{null, !1050, !1059}
!1059 = !DIDerivedType(tag: DW_TAG_reference_type, baseType: !1060, size: 64)
!1060 = !DIDerivedType(tag: DW_TAG_const_type, baseType: !1051)
!1061 = !DISubprogram(name: "operator=", linkageName: "_ZNV11ap_int_baseILi11ELb1EEaSERKS0_", scope: !972, file: !167, line: 488, type: !1053, isLocal: false, isDefinition: false, scopeLine: 488, flags: DIFlagPrototyped, isOptimized: false)
!1062 = !DISubprogram(name: "operator=", linkageName: "_ZN11ap_int_baseILi11ELb1EEaSERVKS0_", scope: !972, file: !167, line: 505, type: !1063, isLocal: false, isDefinition: false, scopeLine: 505, flags: DIFlagPrototyped, isOptimized: false)
!1063 = !DISubroutineType(types: !1064)
!1064 = !{!1065, !995, !1059}
!1065 = !DIDerivedType(tag: DW_TAG_reference_type, baseType: !972, size: 64)
!1066 = !DISubprogram(name: "operator=", linkageName: "_ZN11ap_int_baseILi11ELb1EEaSERKS0_", scope: !972, file: !167, line: 511, type: !1067, isLocal: false, isDefinition: false, scopeLine: 511, flags: DIFlagPrototyped, isOptimized: false)
!1067 = !DISubroutineType(types: !1068)
!1068 = !{!1065, !995, !1055}
!1069 = !DISubprogram(name: "operator=", linkageName: "_ZN11ap_int_baseILi11ELb1EEaSEb", scope: !972, file: !167, line: 525, type: !1070, isLocal: false, isDefinition: false, scopeLine: 525, flags: DIFlagPrototyped, isOptimized: false)
!1070 = !DISubroutineType(types: !1071)
!1071 = !{!1065, !995, !34}
!1072 = !DISubprogram(name: "operator=", linkageName: "_ZN11ap_int_baseILi11ELb1EEaSEc", scope: !972, file: !167, line: 526, type: !1073, isLocal: false, isDefinition: false, scopeLine: 526, flags: DIFlagPrototyped, isOptimized: false)
!1073 = !DISubroutineType(types: !1074)
!1074 = !{!1065, !995, !80}
!1075 = !DISubprogram(name: "operator=", linkageName: "_ZN11ap_int_baseILi11ELb1EEaSEa", scope: !972, file: !167, line: 527, type: !1076, isLocal: false, isDefinition: false, scopeLine: 527, flags: DIFlagPrototyped, isOptimized: false)
!1076 = !DISubroutineType(types: !1077)
!1077 = !{!1065, !995, !84}
!1078 = !DISubprogram(name: "operator=", linkageName: "_ZN11ap_int_baseILi11ELb1EEaSEh", scope: !972, file: !167, line: 528, type: !1079, isLocal: false, isDefinition: false, scopeLine: 528, flags: DIFlagPrototyped, isOptimized: false)
!1079 = !DISubroutineType(types: !1080)
!1080 = !{!1065, !995, !100}
!1081 = !DISubprogram(name: "operator=", linkageName: "_ZN11ap_int_baseILi11ELb1EEaSEs", scope: !972, file: !167, line: 529, type: !1082, isLocal: false, isDefinition: false, scopeLine: 529, flags: DIFlagPrototyped, isOptimized: false)
!1082 = !DISubroutineType(types: !1083)
!1083 = !{!1065, !995, !25}
!1084 = !DISubprogram(name: "operator=", linkageName: "_ZN11ap_int_baseILi11ELb1EEaSEt", scope: !972, file: !167, line: 530, type: !1085, isLocal: false, isDefinition: false, scopeLine: 530, flags: DIFlagPrototyped, isOptimized: false)
!1085 = !DISubroutineType(types: !1086)
!1086 = !{!1065, !995, !109}
!1087 = !DISubprogram(name: "operator=", linkageName: "_ZN11ap_int_baseILi11ELb1EEaSEi", scope: !972, file: !167, line: 531, type: !1088, isLocal: false, isDefinition: false, scopeLine: 531, flags: DIFlagPrototyped, isOptimized: false)
!1088 = !DISubroutineType(types: !1089)
!1089 = !{!1065, !995, !32}
!1090 = !DISubprogram(name: "operator=", linkageName: "_ZN11ap_int_baseILi11ELb1EEaSEj", scope: !972, file: !167, line: 532, type: !1091, isLocal: false, isDefinition: false, scopeLine: 532, flags: DIFlagPrototyped, isOptimized: false)
!1091 = !DISubroutineType(types: !1092)
!1092 = !{!1065, !995, !117}
!1093 = !DISubprogram(name: "operator=", linkageName: "_ZN11ap_int_baseILi11ELb1EEaSEl", scope: !972, file: !167, line: 533, type: !1094, isLocal: false, isDefinition: false, scopeLine: 533, flags: DIFlagPrototyped, isOptimized: false)
!1094 = !DISubroutineType(types: !1095)
!1095 = !{!1065, !995, !122}
!1096 = !DISubprogram(name: "operator=", linkageName: "_ZN11ap_int_baseILi11ELb1EEaSEm", scope: !972, file: !167, line: 534, type: !1097, isLocal: false, isDefinition: false, scopeLine: 534, flags: DIFlagPrototyped, isOptimized: false)
!1097 = !DISubroutineType(types: !1098)
!1098 = !{!1065, !995, !127}
!1099 = !DISubprogram(name: "operator=", linkageName: "_ZN11ap_int_baseILi11ELb1EEaSEx", scope: !972, file: !167, line: 535, type: !1100, isLocal: false, isDefinition: false, scopeLine: 535, flags: DIFlagPrototyped, isOptimized: false)
!1100 = !DISubroutineType(types: !1101)
!1101 = !{!1065, !995, !132}
!1102 = !DISubprogram(name: "operator=", linkageName: "_ZN11ap_int_baseILi11ELb1EEaSEy", scope: !972, file: !167, line: 536, type: !1103, isLocal: false, isDefinition: false, scopeLine: 536, flags: DIFlagPrototyped, isOptimized: false)
!1103 = !DISubroutineType(types: !1104)
!1104 = !{!1065, !995, !138}
!1105 = !DISubprogram(name: "operator long long", linkageName: "_ZNK11ap_int_baseILi11ELb1EEcvxEv", scope: !972, file: !167, line: 587, type: !1106, isLocal: false, isDefinition: false, scopeLine: 587, flags: DIFlagPrototyped, isOptimized: false)
!1106 = !DISubroutineType(types: !1107)
!1107 = !{!1108, !990}
!1108 = !DIDerivedType(tag: DW_TAG_typedef, name: "RetType", scope: !972, file: !167, line: 174, baseType: !303)
!1109 = !DISubprogram(name: "to_bool", linkageName: "_ZNK11ap_int_baseILi11ELb1EE7to_boolEv", scope: !972, file: !167, line: 592, type: !1110, isLocal: false, isDefinition: false, scopeLine: 592, flags: DIFlagPrototyped, isOptimized: false)
!1110 = !DISubroutineType(types: !1111)
!1111 = !{!34, !990}
!1112 = !DISubprogram(name: "to_char", linkageName: "_ZNK11ap_int_baseILi11ELb1EE7to_charEv", scope: !972, file: !167, line: 593, type: !1113, isLocal: false, isDefinition: false, scopeLine: 593, flags: DIFlagPrototyped, isOptimized: false)
!1113 = !DISubroutineType(types: !1114)
!1114 = !{!80, !990}
!1115 = !DISubprogram(name: "to_schar", linkageName: "_ZNK11ap_int_baseILi11ELb1EE8to_scharEv", scope: !972, file: !167, line: 594, type: !1116, isLocal: false, isDefinition: false, scopeLine: 594, flags: DIFlagPrototyped, isOptimized: false)
!1116 = !DISubroutineType(types: !1117)
!1117 = !{!84, !990}
!1118 = !DISubprogram(name: "to_uchar", linkageName: "_ZNK11ap_int_baseILi11ELb1EE8to_ucharEv", scope: !972, file: !167, line: 595, type: !1119, isLocal: false, isDefinition: false, scopeLine: 595, flags: DIFlagPrototyped, isOptimized: false)
!1119 = !DISubroutineType(types: !1120)
!1120 = !{!100, !990}
!1121 = !DISubprogram(name: "to_short", linkageName: "_ZNK11ap_int_baseILi11ELb1EE8to_shortEv", scope: !972, file: !167, line: 596, type: !1122, isLocal: false, isDefinition: false, scopeLine: 596, flags: DIFlagPrototyped, isOptimized: false)
!1122 = !DISubroutineType(types: !1123)
!1123 = !{!25, !990}
!1124 = !DISubprogram(name: "to_ushort", linkageName: "_ZNK11ap_int_baseILi11ELb1EE9to_ushortEv", scope: !972, file: !167, line: 597, type: !1125, isLocal: false, isDefinition: false, scopeLine: 597, flags: DIFlagPrototyped, isOptimized: false)
!1125 = !DISubroutineType(types: !1126)
!1126 = !{!109, !990}
!1127 = !DISubprogram(name: "to_int", linkageName: "_ZNK11ap_int_baseILi11ELb1EE6to_intEv", scope: !972, file: !167, line: 598, type: !988, isLocal: false, isDefinition: false, scopeLine: 598, flags: DIFlagPrototyped, isOptimized: false)
!1128 = !DISubprogram(name: "to_uint", linkageName: "_ZNK11ap_int_baseILi11ELb1EE7to_uintEv", scope: !972, file: !167, line: 599, type: !1129, isLocal: false, isDefinition: false, scopeLine: 599, flags: DIFlagPrototyped, isOptimized: false)
!1129 = !DISubroutineType(types: !1130)
!1130 = !{!117, !990}
!1131 = !DISubprogram(name: "to_long", linkageName: "_ZNK11ap_int_baseILi11ELb1EE7to_longEv", scope: !972, file: !167, line: 600, type: !1132, isLocal: false, isDefinition: false, scopeLine: 600, flags: DIFlagPrototyped, isOptimized: false)
!1132 = !DISubroutineType(types: !1133)
!1133 = !{!122, !990}
!1134 = !DISubprogram(name: "to_ulong", linkageName: "_ZNK11ap_int_baseILi11ELb1EE8to_ulongEv", scope: !972, file: !167, line: 601, type: !1135, isLocal: false, isDefinition: false, scopeLine: 601, flags: DIFlagPrototyped, isOptimized: false)
!1135 = !DISubroutineType(types: !1136)
!1136 = !{!127, !990}
!1137 = !DISubprogram(name: "to_int64", linkageName: "_ZNK11ap_int_baseILi11ELb1EE8to_int64Ev", scope: !972, file: !167, line: 602, type: !1138, isLocal: false, isDefinition: false, scopeLine: 602, flags: DIFlagPrototyped, isOptimized: false)
!1138 = !DISubroutineType(types: !1139)
!1139 = !{!132, !990}
!1140 = !DISubprogram(name: "to_uint64", linkageName: "_ZNK11ap_int_baseILi11ELb1EE9to_uint64Ev", scope: !972, file: !167, line: 603, type: !1141, isLocal: false, isDefinition: false, scopeLine: 603, flags: DIFlagPrototyped, isOptimized: false)
!1141 = !DISubroutineType(types: !1142)
!1142 = !{!138, !990}
!1143 = !DISubprogram(name: "to_half", linkageName: "_ZNK11ap_int_baseILi11ELb1EE7to_halfEv", scope: !972, file: !167, line: 604, type: !1144, isLocal: false, isDefinition: false, scopeLine: 604, flags: DIFlagPrototyped, isOptimized: false)
!1144 = !DISubroutineType(types: !1145)
!1145 = !{!151, !990}
!1146 = !DISubprogram(name: "to_float", linkageName: "_ZNK11ap_int_baseILi11ELb1EE8to_floatEv", scope: !972, file: !167, line: 605, type: !1147, isLocal: false, isDefinition: false, scopeLine: 605, flags: DIFlagPrototyped, isOptimized: false)
!1147 = !DISubroutineType(types: !1148)
!1148 = !{!147, !990}
!1149 = !DISubprogram(name: "to_double", linkageName: "_ZNK11ap_int_baseILi11ELb1EE9to_doubleEv", scope: !972, file: !167, line: 606, type: !1150, isLocal: false, isDefinition: false, scopeLine: 606, flags: DIFlagPrototyped, isOptimized: false)
!1150 = !DISubroutineType(types: !1151)
!1151 = !{!143, !990}
!1152 = !DISubprogram(name: "length", linkageName: "_ZNVK11ap_int_baseILi11ELb1EE6lengthEv", scope: !972, file: !167, line: 630, type: !1153, isLocal: false, isDefinition: false, scopeLine: 630, flags: DIFlagPrototyped, isOptimized: false)
!1153 = !DISubroutineType(types: !1154)
!1154 = !{!32, !1155}
!1155 = !DIDerivedType(tag: DW_TAG_pointer_type, baseType: !1060, size: 64, flags: DIFlagArtificial | DIFlagObjectPointer)
!1156 = !DISubprogram(name: "iszero", linkageName: "_ZNK11ap_int_baseILi11ELb1EE6iszeroEv", scope: !972, file: !167, line: 633, type: !1110, isLocal: false, isDefinition: false, scopeLine: 633, flags: DIFlagPrototyped, isOptimized: false)
!1157 = !DISubprogram(name: "is_zero", linkageName: "_ZNK11ap_int_baseILi11ELb1EE7is_zeroEv", scope: !972, file: !167, line: 636, type: !1110, isLocal: false, isDefinition: false, scopeLine: 636, flags: DIFlagPrototyped, isOptimized: false)
!1158 = !DISubprogram(name: "sign", linkageName: "_ZNK11ap_int_baseILi11ELb1EE4signEv", scope: !972, file: !167, line: 639, type: !1110, isLocal: false, isDefinition: false, scopeLine: 639, flags: DIFlagPrototyped, isOptimized: false)
!1159 = !DISubprogram(name: "clear", linkageName: "_ZN11ap_int_baseILi11ELb1EE5clearEi", scope: !972, file: !167, line: 648, type: !1160, isLocal: false, isDefinition: false, scopeLine: 648, flags: DIFlagPrototyped, isOptimized: false)
!1160 = !DISubroutineType(types: !1161)
!1161 = !{null, !995, !32}
!1162 = !DISubprogram(name: "invert", linkageName: "_ZN11ap_int_baseILi11ELb1EE6invertEi", scope: !972, file: !167, line: 654, type: !1160, isLocal: false, isDefinition: false, scopeLine: 654, flags: DIFlagPrototyped, isOptimized: false)
!1163 = !DISubprogram(name: "test", linkageName: "_ZNK11ap_int_baseILi11ELb1EE4testEi", scope: !972, file: !167, line: 663, type: !1164, isLocal: false, isDefinition: false, scopeLine: 663, flags: DIFlagPrototyped, isOptimized: false)
!1164 = !DISubroutineType(types: !1165)
!1165 = !{!34, !990, !32}
!1166 = !DISubprogram(name: "get", linkageName: "_ZN11ap_int_baseILi11ELb1EE3getEv", scope: !972, file: !167, line: 669, type: !1167, isLocal: false, isDefinition: false, scopeLine: 669, flags: DIFlagPrototyped, isOptimized: false)
!1167 = !DISubroutineType(types: !1168)
!1168 = !{!1065, !995}
!1169 = !DISubprogram(name: "set", linkageName: "_ZN11ap_int_baseILi11ELb1EE3setEi", scope: !972, file: !167, line: 672, type: !1160, isLocal: false, isDefinition: false, scopeLine: 672, flags: DIFlagPrototyped, isOptimized: false)
!1170 = !DISubprogram(name: "set", linkageName: "_ZN11ap_int_baseILi11ELb1EE3setEib", scope: !972, file: !167, line: 678, type: !1171, isLocal: false, isDefinition: false, scopeLine: 678, flags: DIFlagPrototyped, isOptimized: false)
!1171 = !DISubroutineType(types: !1172)
!1172 = !{null, !995, !32, !34}
!1173 = !DISubprogram(name: "lrotate", linkageName: "_ZN11ap_int_baseILi11ELb1EE7lrotateEi", scope: !972, file: !167, line: 685, type: !1088, isLocal: false, isDefinition: false, scopeLine: 685, flags: DIFlagPrototyped, isOptimized: false)
!1174 = !DISubprogram(name: "rrotate", linkageName: "_ZN11ap_int_baseILi11ELb1EE7rrotateEi", scope: !972, file: !167, line: 700, type: !1088, isLocal: false, isDefinition: false, scopeLine: 700, flags: DIFlagPrototyped, isOptimized: false)
!1175 = !DISubprogram(name: "reverse", linkageName: "_ZN11ap_int_baseILi11ELb1EE7reverseEv", scope: !972, file: !167, line: 715, type: !1167, isLocal: false, isDefinition: false, scopeLine: 715, flags: DIFlagPrototyped, isOptimized: false)
!1176 = !DISubprogram(name: "set_bit", linkageName: "_ZN11ap_int_baseILi11ELb1EE7set_bitEib", scope: !972, file: !167, line: 721, type: !1171, isLocal: false, isDefinition: false, scopeLine: 721, flags: DIFlagPrototyped, isOptimized: false)
!1177 = !DISubprogram(name: "get_bit", linkageName: "_ZNK11ap_int_baseILi11ELb1EE7get_bitEi", scope: !972, file: !167, line: 726, type: !1164, isLocal: false, isDefinition: false, scopeLine: 726, flags: DIFlagPrototyped, isOptimized: false)
!1178 = !DISubprogram(name: "b_not", linkageName: "_ZN11ap_int_baseILi11ELb1EE5b_notEv", scope: !972, file: !167, line: 731, type: !993, isLocal: false, isDefinition: false, scopeLine: 731, flags: DIFlagPrototyped, isOptimized: false)
!1179 = !DISubprogram(name: "checkOverflowCsim", linkageName: "_ZNK11ap_int_baseILi11ELb1EE17checkOverflowCsimEibb", scope: !972, file: !167, line: 805, type: !1180, isLocal: false, isDefinition: false, scopeLine: 805, flags: DIFlagPrototyped, isOptimized: false)
!1180 = !DISubroutineType(types: !1181)
!1181 = !{!34, !990, !32, !34, !34}
!1182 = !DISubprogram(name: "operator++", linkageName: "_ZN11ap_int_baseILi11ELb1EEppEv", scope: !972, file: !167, line: 910, type: !1167, isLocal: false, isDefinition: false, scopeLine: 910, flags: DIFlagPrototyped, isOptimized: false)
!1183 = !DISubprogram(name: "operator--", linkageName: "_ZN11ap_int_baseILi11ELb1EEmmEv", scope: !972, file: !167, line: 914, type: !1167, isLocal: false, isDefinition: false, scopeLine: 914, flags: DIFlagPrototyped, isOptimized: false)
!1184 = !DISubprogram(name: "operator++", linkageName: "_ZN11ap_int_baseILi11ELb1EEppEi", scope: !972, file: !167, line: 922, type: !1185, isLocal: false, isDefinition: false, scopeLine: 922, flags: DIFlagPrototyped, isOptimized: false)
!1185 = !DISubroutineType(types: !1186)
!1186 = !{!1187, !995, !32}
!1187 = !DIDerivedType(tag: DW_TAG_const_type, baseType: !1188)
!1188 = !DIDerivedType(tag: DW_TAG_typedef, name: "arg1", scope: !1189, file: !167, line: 213, baseType: !1190)
!1189 = distinct !DICompositeType(tag: DW_TAG_structure_type, name: "RType<11, true>", scope: !972, file: !167, line: 180, size: 8, flags: DIFlagTypePassByValue, elements: !4, templateParams: !966, identifier: "_ZTSN11ap_int_baseILi11ELb1EE5RTypeILi11ELb1EEE")
!1190 = !DIDerivedType(tag: DW_TAG_typedef, name: "type", scope: !965, file: !167, line: 149, baseType: !968)
!1191 = !DISubprogram(name: "operator--", linkageName: "_ZN11ap_int_baseILi11ELb1EEmmEi", scope: !972, file: !167, line: 927, type: !1185, isLocal: false, isDefinition: false, scopeLine: 927, flags: DIFlagPrototyped, isOptimized: false)
!1192 = !DISubprogram(name: "operator+", linkageName: "_ZNK11ap_int_baseILi11ELb1EEpsEv", scope: !972, file: !167, line: 936, type: !1193, isLocal: false, isDefinition: false, scopeLine: 936, flags: DIFlagPrototyped, isOptimized: false)
!1193 = !DISubroutineType(types: !1194)
!1194 = !{!1188, !990}
!1195 = !DISubprogram(name: "operator-", linkageName: "_ZNK11ap_int_baseILi11ELb1EEngEv", scope: !972, file: !167, line: 939, type: !1196, isLocal: false, isDefinition: false, scopeLine: 939, flags: DIFlagPrototyped, isOptimized: false)
!1196 = !DISubroutineType(types: !1197)
!1197 = !{!1198, !990}
!1198 = !DIDerivedType(tag: DW_TAG_typedef, name: "minus", scope: !1199, file: !167, line: 209, baseType: !1200)
!1199 = distinct !DICompositeType(tag: DW_TAG_structure_type, name: "RType<1, false>", scope: !972, file: !167, line: 180, size: 8, flags: DIFlagTypePassByValue, elements: !4, templateParams: !488, identifier: "_ZTSN11ap_int_baseILi11ELb1EE5RTypeILi1ELb0EEE")
!1200 = !DIDerivedType(tag: DW_TAG_typedef, name: "type", scope: !1201, file: !167, line: 149, baseType: !1204)
!1201 = distinct !DICompositeType(tag: DW_TAG_structure_type, name: "_ap_int_factory<12, true>", file: !167, line: 149, size: 8, flags: DIFlagTypePassByValue, elements: !4, templateParams: !1202, identifier: "_ZTS15_ap_int_factoryILi12ELb1EE")
!1202 = !{!1203, !388}
!1203 = !DITemplateValueParameter(name: "_AP_W2", type: !32, value: i32 12)
!1204 = distinct !DICompositeType(tag: DW_TAG_structure_type, name: "ap_int<12>", file: !392, line: 17, size: 16, flags: DIFlagTypePassByValue, elements: !1205, templateParams: !2474, identifier: "_ZTS6ap_intILi12EE")
!1205 = !{!1206, !2838, !2842, !2845, !2848, !2851, !2854, !2857, !2860, !2863, !2866, !2869, !2872, !2875, !2878, !2881, !2884, !2887, !2890, !2893, !2896, !2902, !2908, !2912}
!1206 = !DIDerivedType(tag: DW_TAG_inheritance, scope: !1204, baseType: !1207)
!1207 = distinct !DICompositeType(tag: DW_TAG_structure_type, name: "ap_int_base<12, true>", file: !167, line: 154, size: 16, flags: DIFlagTypePassByValue, elements: !1208, templateParams: !2809, identifier: "_ZTS11ap_int_baseILi12ELb1EE")
!1208 = !{!1209, !1220, !1221, !1222, !1227, !1231, !1234, !1237, !1240, !1243, !1246, !1249, !1252, !1255, !1258, !1261, !1264, !1267, !1270, !1273, !1276, !1279, !1282, !1287, !1291, !1296, !1297, !1301, !1304, !1307, !1310, !1313, !1316, !1319, !1322, !1325, !1328, !1331, !1334, !1337, !1340, !1344, !1347, !1350, !1353, !1356, !1359, !1362, !1363, !1366, !1369, !1372, !1375, !1378, !1381, !1384, !1387, !1391, !1392, !1393, !1394, !1397, !1398, !1401, !1404, !1405, !1408, !1409, !1410, !1411, !1412, !1413, !1414, !1417, !1418, !1419, !1425, !1426, !1429, !2139, !2140, !2141, !2810, !2813, !2816, !2819, !2820, !2821, !2825, !2826, !2827, !2828, !2829, !2830, !2831, !2832, !2833, !2834, !2835}
!1209 = !DIDerivedType(tag: DW_TAG_inheritance, scope: !1207, baseType: !1210)
!1210 = distinct !DICompositeType(tag: DW_TAG_structure_type, name: "ssdm_int<12, true>", file: !22, line: 514, size: 16, flags: DIFlagTypePassByValue, elements: !1211, templateParams: !1218, identifier: "_ZTS8ssdm_intILi12ELb1EE")
!1211 = !{!1212, !1214}
!1212 = !DIDerivedType(tag: DW_TAG_member, name: "V", scope: !1210, file: !22, line: 516, baseType: !1213, size: 12, align: 16)
!1213 = !DIBasicType(name: "int12", size: 12, encoding: DW_ATE_signed)
!1214 = !DISubprogram(name: "ssdm_int", scope: !1210, file: !22, line: 517, type: !1215, isLocal: false, isDefinition: false, scopeLine: 517, flags: DIFlagPrototyped, isOptimized: false)
!1215 = !DISubroutineType(types: !1216)
!1216 = !{null, !1217}
!1217 = !DIDerivedType(tag: DW_TAG_pointer_type, baseType: !1210, size: 64, flags: DIFlagArtificial | DIFlagObjectPointer)
!1218 = !{!1219, !33}
!1219 = !DITemplateValueParameter(name: "_AP_N", type: !32, value: i32 12)
!1220 = !DIDerivedType(tag: DW_TAG_member, name: "width", scope: !1207, file: !167, line: 176, baseType: !36, flags: DIFlagStaticMember, extraData: i32 12)
!1221 = !DIDerivedType(tag: DW_TAG_member, name: "sign_flag", scope: !1207, file: !167, line: 177, baseType: !88, flags: DIFlagStaticMember, extraData: i1 true)
!1222 = !DISubprogram(name: "countLeadingOnes", linkageName: "_ZNK11ap_int_baseILi12ELb1EE16countLeadingOnesEv", scope: !1207, file: !167, line: 156, type: !1223, isLocal: false, isDefinition: false, scopeLine: 156, flags: DIFlagPrivate | DIFlagPrototyped, isOptimized: false)
!1223 = !DISubroutineType(types: !1224)
!1224 = !{!32, !1225}
!1225 = !DIDerivedType(tag: DW_TAG_pointer_type, baseType: !1226, size: 64, flags: DIFlagArtificial | DIFlagObjectPointer)
!1226 = !DIDerivedType(tag: DW_TAG_const_type, baseType: !1207)
!1227 = !DISubprogram(name: "ap_int_base", scope: !1207, file: !167, line: 221, type: !1228, isLocal: false, isDefinition: false, scopeLine: 221, flags: DIFlagPrototyped, isOptimized: false)
!1228 = !DISubroutineType(types: !1229)
!1229 = !{null, !1230}
!1230 = !DIDerivedType(tag: DW_TAG_pointer_type, baseType: !1207, size: 64, flags: DIFlagArtificial | DIFlagObjectPointer)
!1231 = !DISubprogram(name: "ap_int_base", scope: !1207, file: !167, line: 254, type: !1232, isLocal: false, isDefinition: false, scopeLine: 254, flags: DIFlagPrototyped, isOptimized: false)
!1232 = !DISubroutineType(types: !1233)
!1233 = !{null, !1230, !88}
!1234 = !DISubprogram(name: "ap_int_base", scope: !1207, file: !167, line: 255, type: !1235, isLocal: false, isDefinition: false, scopeLine: 255, flags: DIFlagPrototyped, isOptimized: false)
!1235 = !DISubroutineType(types: !1236)
!1236 = !{null, !1230, !79}
!1237 = !DISubprogram(name: "ap_int_base", scope: !1207, file: !167, line: 256, type: !1238, isLocal: false, isDefinition: false, scopeLine: 256, flags: DIFlagPrototyped, isOptimized: false)
!1238 = !DISubroutineType(types: !1239)
!1239 = !{null, !1230, !95}
!1240 = !DISubprogram(name: "ap_int_base", scope: !1207, file: !167, line: 257, type: !1241, isLocal: false, isDefinition: false, scopeLine: 257, flags: DIFlagPrototyped, isOptimized: false)
!1241 = !DISubroutineType(types: !1242)
!1242 = !{null, !1230, !99}
!1243 = !DISubprogram(name: "ap_int_base", scope: !1207, file: !167, line: 258, type: !1244, isLocal: false, isDefinition: false, scopeLine: 258, flags: DIFlagPrototyped, isOptimized: false)
!1244 = !DISubroutineType(types: !1245)
!1245 = !{null, !1230, !104}
!1246 = !DISubprogram(name: "ap_int_base", scope: !1207, file: !167, line: 259, type: !1247, isLocal: false, isDefinition: false, scopeLine: 259, flags: DIFlagPrototyped, isOptimized: false)
!1247 = !DISubroutineType(types: !1248)
!1248 = !{null, !1230, !108}
!1249 = !DISubprogram(name: "ap_int_base", scope: !1207, file: !167, line: 260, type: !1250, isLocal: false, isDefinition: false, scopeLine: 260, flags: DIFlagPrototyped, isOptimized: false)
!1250 = !DISubroutineType(types: !1251)
!1251 = !{null, !1230, !36}
!1252 = !DISubprogram(name: "ap_int_base", scope: !1207, file: !167, line: 261, type: !1253, isLocal: false, isDefinition: false, scopeLine: 261, flags: DIFlagPrototyped, isOptimized: false)
!1253 = !DISubroutineType(types: !1254)
!1254 = !{null, !1230, !116}
!1255 = !DISubprogram(name: "ap_int_base", scope: !1207, file: !167, line: 262, type: !1256, isLocal: false, isDefinition: false, scopeLine: 262, flags: DIFlagPrototyped, isOptimized: false)
!1256 = !DISubroutineType(types: !1257)
!1257 = !{null, !1230, !121}
!1258 = !DISubprogram(name: "ap_int_base", scope: !1207, file: !167, line: 263, type: !1259, isLocal: false, isDefinition: false, scopeLine: 263, flags: DIFlagPrototyped, isOptimized: false)
!1259 = !DISubroutineType(types: !1260)
!1260 = !{null, !1230, !126}
!1261 = !DISubprogram(name: "ap_int_base", scope: !1207, file: !167, line: 264, type: !1262, isLocal: false, isDefinition: false, scopeLine: 264, flags: DIFlagPrototyped, isOptimized: false)
!1262 = !DISubroutineType(types: !1263)
!1263 = !{null, !1230, !131}
!1264 = !DISubprogram(name: "ap_int_base", scope: !1207, file: !167, line: 265, type: !1265, isLocal: false, isDefinition: false, scopeLine: 265, flags: DIFlagPrototyped, isOptimized: false)
!1265 = !DISubroutineType(types: !1266)
!1266 = !{null, !1230, !137}
!1267 = !DISubprogram(name: "ap_int_base", scope: !1207, file: !167, line: 270, type: !1268, isLocal: false, isDefinition: false, scopeLine: 270, flags: DIFlagPrototyped, isOptimized: false)
!1268 = !DISubroutineType(types: !1269)
!1269 = !{null, !1230, !151}
!1270 = !DISubprogram(name: "ap_int_base", scope: !1207, file: !167, line: 276, type: !1271, isLocal: false, isDefinition: false, scopeLine: 276, flags: DIFlagPrototyped, isOptimized: false)
!1271 = !DISubroutineType(types: !1272)
!1272 = !{null, !1230, !147}
!1273 = !DISubprogram(name: "ap_int_base", scope: !1207, file: !167, line: 335, type: !1274, isLocal: false, isDefinition: false, scopeLine: 335, flags: DIFlagPrototyped, isOptimized: false)
!1274 = !DISubroutineType(types: !1275)
!1275 = !{null, !1230, !143}
!1276 = !DISubprogram(name: "ap_int_base", scope: !1207, file: !167, line: 431, type: !1277, isLocal: false, isDefinition: false, scopeLine: 431, flags: DIFlagPrototyped, isOptimized: false)
!1277 = !DISubroutineType(types: !1278)
!1278 = !{null, !1230, !78}
!1279 = !DISubprogram(name: "ap_int_base", scope: !1207, file: !167, line: 437, type: !1280, isLocal: false, isDefinition: false, scopeLine: 437, flags: DIFlagPrototyped, isOptimized: false)
!1280 = !DISubroutineType(types: !1281)
!1281 = !{null, !1230, !78, !84}
!1282 = !DISubprogram(name: "read", linkageName: "_ZNV11ap_int_baseILi12ELb1EE4readEv", scope: !1207, file: !167, line: 459, type: !1283, isLocal: false, isDefinition: false, scopeLine: 459, flags: DIFlagPrototyped, isOptimized: false)
!1283 = !DISubroutineType(types: !1284)
!1284 = !{!1207, !1285}
!1285 = !DIDerivedType(tag: DW_TAG_pointer_type, baseType: !1286, size: 64, flags: DIFlagArtificial | DIFlagObjectPointer)
!1286 = !DIDerivedType(tag: DW_TAG_volatile_type, baseType: !1207)
!1287 = !DISubprogram(name: "write", linkageName: "_ZNV11ap_int_baseILi12ELb1EE5writeERKS0_", scope: !1207, file: !167, line: 466, type: !1288, isLocal: false, isDefinition: false, scopeLine: 466, flags: DIFlagPrototyped, isOptimized: false)
!1288 = !DISubroutineType(types: !1289)
!1289 = !{null, !1285, !1290}
!1290 = !DIDerivedType(tag: DW_TAG_reference_type, baseType: !1226, size: 64)
!1291 = !DISubprogram(name: "operator=", linkageName: "_ZNV11ap_int_baseILi12ELb1EEaSERVKS0_", scope: !1207, file: !167, line: 478, type: !1292, isLocal: false, isDefinition: false, scopeLine: 478, flags: DIFlagPrototyped, isOptimized: false)
!1292 = !DISubroutineType(types: !1293)
!1293 = !{null, !1285, !1294}
!1294 = !DIDerivedType(tag: DW_TAG_reference_type, baseType: !1295, size: 64)
!1295 = !DIDerivedType(tag: DW_TAG_const_type, baseType: !1286)
!1296 = !DISubprogram(name: "operator=", linkageName: "_ZNV11ap_int_baseILi12ELb1EEaSERKS0_", scope: !1207, file: !167, line: 488, type: !1288, isLocal: false, isDefinition: false, scopeLine: 488, flags: DIFlagPrototyped, isOptimized: false)
!1297 = !DISubprogram(name: "operator=", linkageName: "_ZN11ap_int_baseILi12ELb1EEaSERVKS0_", scope: !1207, file: !167, line: 505, type: !1298, isLocal: false, isDefinition: false, scopeLine: 505, flags: DIFlagPrototyped, isOptimized: false)
!1298 = !DISubroutineType(types: !1299)
!1299 = !{!1300, !1230, !1294}
!1300 = !DIDerivedType(tag: DW_TAG_reference_type, baseType: !1207, size: 64)
!1301 = !DISubprogram(name: "operator=", linkageName: "_ZN11ap_int_baseILi12ELb1EEaSERKS0_", scope: !1207, file: !167, line: 511, type: !1302, isLocal: false, isDefinition: false, scopeLine: 511, flags: DIFlagPrototyped, isOptimized: false)
!1302 = !DISubroutineType(types: !1303)
!1303 = !{!1300, !1230, !1290}
!1304 = !DISubprogram(name: "operator=", linkageName: "_ZN11ap_int_baseILi12ELb1EEaSEb", scope: !1207, file: !167, line: 525, type: !1305, isLocal: false, isDefinition: false, scopeLine: 525, flags: DIFlagPrototyped, isOptimized: false)
!1305 = !DISubroutineType(types: !1306)
!1306 = !{!1300, !1230, !34}
!1307 = !DISubprogram(name: "operator=", linkageName: "_ZN11ap_int_baseILi12ELb1EEaSEc", scope: !1207, file: !167, line: 526, type: !1308, isLocal: false, isDefinition: false, scopeLine: 526, flags: DIFlagPrototyped, isOptimized: false)
!1308 = !DISubroutineType(types: !1309)
!1309 = !{!1300, !1230, !80}
!1310 = !DISubprogram(name: "operator=", linkageName: "_ZN11ap_int_baseILi12ELb1EEaSEa", scope: !1207, file: !167, line: 527, type: !1311, isLocal: false, isDefinition: false, scopeLine: 527, flags: DIFlagPrototyped, isOptimized: false)
!1311 = !DISubroutineType(types: !1312)
!1312 = !{!1300, !1230, !84}
!1313 = !DISubprogram(name: "operator=", linkageName: "_ZN11ap_int_baseILi12ELb1EEaSEh", scope: !1207, file: !167, line: 528, type: !1314, isLocal: false, isDefinition: false, scopeLine: 528, flags: DIFlagPrototyped, isOptimized: false)
!1314 = !DISubroutineType(types: !1315)
!1315 = !{!1300, !1230, !100}
!1316 = !DISubprogram(name: "operator=", linkageName: "_ZN11ap_int_baseILi12ELb1EEaSEs", scope: !1207, file: !167, line: 529, type: !1317, isLocal: false, isDefinition: false, scopeLine: 529, flags: DIFlagPrototyped, isOptimized: false)
!1317 = !DISubroutineType(types: !1318)
!1318 = !{!1300, !1230, !25}
!1319 = !DISubprogram(name: "operator=", linkageName: "_ZN11ap_int_baseILi12ELb1EEaSEt", scope: !1207, file: !167, line: 530, type: !1320, isLocal: false, isDefinition: false, scopeLine: 530, flags: DIFlagPrototyped, isOptimized: false)
!1320 = !DISubroutineType(types: !1321)
!1321 = !{!1300, !1230, !109}
!1322 = !DISubprogram(name: "operator=", linkageName: "_ZN11ap_int_baseILi12ELb1EEaSEi", scope: !1207, file: !167, line: 531, type: !1323, isLocal: false, isDefinition: false, scopeLine: 531, flags: DIFlagPrototyped, isOptimized: false)
!1323 = !DISubroutineType(types: !1324)
!1324 = !{!1300, !1230, !32}
!1325 = !DISubprogram(name: "operator=", linkageName: "_ZN11ap_int_baseILi12ELb1EEaSEj", scope: !1207, file: !167, line: 532, type: !1326, isLocal: false, isDefinition: false, scopeLine: 532, flags: DIFlagPrototyped, isOptimized: false)
!1326 = !DISubroutineType(types: !1327)
!1327 = !{!1300, !1230, !117}
!1328 = !DISubprogram(name: "operator=", linkageName: "_ZN11ap_int_baseILi12ELb1EEaSEl", scope: !1207, file: !167, line: 533, type: !1329, isLocal: false, isDefinition: false, scopeLine: 533, flags: DIFlagPrototyped, isOptimized: false)
!1329 = !DISubroutineType(types: !1330)
!1330 = !{!1300, !1230, !122}
!1331 = !DISubprogram(name: "operator=", linkageName: "_ZN11ap_int_baseILi12ELb1EEaSEm", scope: !1207, file: !167, line: 534, type: !1332, isLocal: false, isDefinition: false, scopeLine: 534, flags: DIFlagPrototyped, isOptimized: false)
!1332 = !DISubroutineType(types: !1333)
!1333 = !{!1300, !1230, !127}
!1334 = !DISubprogram(name: "operator=", linkageName: "_ZN11ap_int_baseILi12ELb1EEaSEx", scope: !1207, file: !167, line: 535, type: !1335, isLocal: false, isDefinition: false, scopeLine: 535, flags: DIFlagPrototyped, isOptimized: false)
!1335 = !DISubroutineType(types: !1336)
!1336 = !{!1300, !1230, !132}
!1337 = !DISubprogram(name: "operator=", linkageName: "_ZN11ap_int_baseILi12ELb1EEaSEy", scope: !1207, file: !167, line: 536, type: !1338, isLocal: false, isDefinition: false, scopeLine: 536, flags: DIFlagPrototyped, isOptimized: false)
!1338 = !DISubroutineType(types: !1339)
!1339 = !{!1300, !1230, !138}
!1340 = !DISubprogram(name: "operator long long", linkageName: "_ZNK11ap_int_baseILi12ELb1EEcvxEv", scope: !1207, file: !167, line: 587, type: !1341, isLocal: false, isDefinition: false, scopeLine: 587, flags: DIFlagPrototyped, isOptimized: false)
!1341 = !DISubroutineType(types: !1342)
!1342 = !{!1343, !1225}
!1343 = !DIDerivedType(tag: DW_TAG_typedef, name: "RetType", scope: !1207, file: !167, line: 174, baseType: !303)
!1344 = !DISubprogram(name: "to_bool", linkageName: "_ZNK11ap_int_baseILi12ELb1EE7to_boolEv", scope: !1207, file: !167, line: 592, type: !1345, isLocal: false, isDefinition: false, scopeLine: 592, flags: DIFlagPrototyped, isOptimized: false)
!1345 = !DISubroutineType(types: !1346)
!1346 = !{!34, !1225}
!1347 = !DISubprogram(name: "to_char", linkageName: "_ZNK11ap_int_baseILi12ELb1EE7to_charEv", scope: !1207, file: !167, line: 593, type: !1348, isLocal: false, isDefinition: false, scopeLine: 593, flags: DIFlagPrototyped, isOptimized: false)
!1348 = !DISubroutineType(types: !1349)
!1349 = !{!80, !1225}
!1350 = !DISubprogram(name: "to_schar", linkageName: "_ZNK11ap_int_baseILi12ELb1EE8to_scharEv", scope: !1207, file: !167, line: 594, type: !1351, isLocal: false, isDefinition: false, scopeLine: 594, flags: DIFlagPrototyped, isOptimized: false)
!1351 = !DISubroutineType(types: !1352)
!1352 = !{!84, !1225}
!1353 = !DISubprogram(name: "to_uchar", linkageName: "_ZNK11ap_int_baseILi12ELb1EE8to_ucharEv", scope: !1207, file: !167, line: 595, type: !1354, isLocal: false, isDefinition: false, scopeLine: 595, flags: DIFlagPrototyped, isOptimized: false)
!1354 = !DISubroutineType(types: !1355)
!1355 = !{!100, !1225}
!1356 = !DISubprogram(name: "to_short", linkageName: "_ZNK11ap_int_baseILi12ELb1EE8to_shortEv", scope: !1207, file: !167, line: 596, type: !1357, isLocal: false, isDefinition: false, scopeLine: 596, flags: DIFlagPrototyped, isOptimized: false)
!1357 = !DISubroutineType(types: !1358)
!1358 = !{!25, !1225}
!1359 = !DISubprogram(name: "to_ushort", linkageName: "_ZNK11ap_int_baseILi12ELb1EE9to_ushortEv", scope: !1207, file: !167, line: 597, type: !1360, isLocal: false, isDefinition: false, scopeLine: 597, flags: DIFlagPrototyped, isOptimized: false)
!1360 = !DISubroutineType(types: !1361)
!1361 = !{!109, !1225}
!1362 = !DISubprogram(name: "to_int", linkageName: "_ZNK11ap_int_baseILi12ELb1EE6to_intEv", scope: !1207, file: !167, line: 598, type: !1223, isLocal: false, isDefinition: false, scopeLine: 598, flags: DIFlagPrototyped, isOptimized: false)
!1363 = !DISubprogram(name: "to_uint", linkageName: "_ZNK11ap_int_baseILi12ELb1EE7to_uintEv", scope: !1207, file: !167, line: 599, type: !1364, isLocal: false, isDefinition: false, scopeLine: 599, flags: DIFlagPrototyped, isOptimized: false)
!1364 = !DISubroutineType(types: !1365)
!1365 = !{!117, !1225}
!1366 = !DISubprogram(name: "to_long", linkageName: "_ZNK11ap_int_baseILi12ELb1EE7to_longEv", scope: !1207, file: !167, line: 600, type: !1367, isLocal: false, isDefinition: false, scopeLine: 600, flags: DIFlagPrototyped, isOptimized: false)
!1367 = !DISubroutineType(types: !1368)
!1368 = !{!122, !1225}
!1369 = !DISubprogram(name: "to_ulong", linkageName: "_ZNK11ap_int_baseILi12ELb1EE8to_ulongEv", scope: !1207, file: !167, line: 601, type: !1370, isLocal: false, isDefinition: false, scopeLine: 601, flags: DIFlagPrototyped, isOptimized: false)
!1370 = !DISubroutineType(types: !1371)
!1371 = !{!127, !1225}
!1372 = !DISubprogram(name: "to_int64", linkageName: "_ZNK11ap_int_baseILi12ELb1EE8to_int64Ev", scope: !1207, file: !167, line: 602, type: !1373, isLocal: false, isDefinition: false, scopeLine: 602, flags: DIFlagPrototyped, isOptimized: false)
!1373 = !DISubroutineType(types: !1374)
!1374 = !{!132, !1225}
!1375 = !DISubprogram(name: "to_uint64", linkageName: "_ZNK11ap_int_baseILi12ELb1EE9to_uint64Ev", scope: !1207, file: !167, line: 603, type: !1376, isLocal: false, isDefinition: false, scopeLine: 603, flags: DIFlagPrototyped, isOptimized: false)
!1376 = !DISubroutineType(types: !1377)
!1377 = !{!138, !1225}
!1378 = !DISubprogram(name: "to_half", linkageName: "_ZNK11ap_int_baseILi12ELb1EE7to_halfEv", scope: !1207, file: !167, line: 604, type: !1379, isLocal: false, isDefinition: false, scopeLine: 604, flags: DIFlagPrototyped, isOptimized: false)
!1379 = !DISubroutineType(types: !1380)
!1380 = !{!151, !1225}
!1381 = !DISubprogram(name: "to_float", linkageName: "_ZNK11ap_int_baseILi12ELb1EE8to_floatEv", scope: !1207, file: !167, line: 605, type: !1382, isLocal: false, isDefinition: false, scopeLine: 605, flags: DIFlagPrototyped, isOptimized: false)
!1382 = !DISubroutineType(types: !1383)
!1383 = !{!147, !1225}
!1384 = !DISubprogram(name: "to_double", linkageName: "_ZNK11ap_int_baseILi12ELb1EE9to_doubleEv", scope: !1207, file: !167, line: 606, type: !1385, isLocal: false, isDefinition: false, scopeLine: 606, flags: DIFlagPrototyped, isOptimized: false)
!1385 = !DISubroutineType(types: !1386)
!1386 = !{!143, !1225}
!1387 = !DISubprogram(name: "length", linkageName: "_ZNVK11ap_int_baseILi12ELb1EE6lengthEv", scope: !1207, file: !167, line: 630, type: !1388, isLocal: false, isDefinition: false, scopeLine: 630, flags: DIFlagPrototyped, isOptimized: false)
!1388 = !DISubroutineType(types: !1389)
!1389 = !{!32, !1390}
!1390 = !DIDerivedType(tag: DW_TAG_pointer_type, baseType: !1295, size: 64, flags: DIFlagArtificial | DIFlagObjectPointer)
!1391 = !DISubprogram(name: "iszero", linkageName: "_ZNK11ap_int_baseILi12ELb1EE6iszeroEv", scope: !1207, file: !167, line: 633, type: !1345, isLocal: false, isDefinition: false, scopeLine: 633, flags: DIFlagPrototyped, isOptimized: false)
!1392 = !DISubprogram(name: "is_zero", linkageName: "_ZNK11ap_int_baseILi12ELb1EE7is_zeroEv", scope: !1207, file: !167, line: 636, type: !1345, isLocal: false, isDefinition: false, scopeLine: 636, flags: DIFlagPrototyped, isOptimized: false)
!1393 = !DISubprogram(name: "sign", linkageName: "_ZNK11ap_int_baseILi12ELb1EE4signEv", scope: !1207, file: !167, line: 639, type: !1345, isLocal: false, isDefinition: false, scopeLine: 639, flags: DIFlagPrototyped, isOptimized: false)
!1394 = !DISubprogram(name: "clear", linkageName: "_ZN11ap_int_baseILi12ELb1EE5clearEi", scope: !1207, file: !167, line: 648, type: !1395, isLocal: false, isDefinition: false, scopeLine: 648, flags: DIFlagPrototyped, isOptimized: false)
!1395 = !DISubroutineType(types: !1396)
!1396 = !{null, !1230, !32}
!1397 = !DISubprogram(name: "invert", linkageName: "_ZN11ap_int_baseILi12ELb1EE6invertEi", scope: !1207, file: !167, line: 654, type: !1395, isLocal: false, isDefinition: false, scopeLine: 654, flags: DIFlagPrototyped, isOptimized: false)
!1398 = !DISubprogram(name: "test", linkageName: "_ZNK11ap_int_baseILi12ELb1EE4testEi", scope: !1207, file: !167, line: 663, type: !1399, isLocal: false, isDefinition: false, scopeLine: 663, flags: DIFlagPrototyped, isOptimized: false)
!1399 = !DISubroutineType(types: !1400)
!1400 = !{!34, !1225, !32}
!1401 = !DISubprogram(name: "get", linkageName: "_ZN11ap_int_baseILi12ELb1EE3getEv", scope: !1207, file: !167, line: 669, type: !1402, isLocal: false, isDefinition: false, scopeLine: 669, flags: DIFlagPrototyped, isOptimized: false)
!1402 = !DISubroutineType(types: !1403)
!1403 = !{!1300, !1230}
!1404 = !DISubprogram(name: "set", linkageName: "_ZN11ap_int_baseILi12ELb1EE3setEi", scope: !1207, file: !167, line: 672, type: !1395, isLocal: false, isDefinition: false, scopeLine: 672, flags: DIFlagPrototyped, isOptimized: false)
!1405 = !DISubprogram(name: "set", linkageName: "_ZN11ap_int_baseILi12ELb1EE3setEib", scope: !1207, file: !167, line: 678, type: !1406, isLocal: false, isDefinition: false, scopeLine: 678, flags: DIFlagPrototyped, isOptimized: false)
!1406 = !DISubroutineType(types: !1407)
!1407 = !{null, !1230, !32, !34}
!1408 = !DISubprogram(name: "lrotate", linkageName: "_ZN11ap_int_baseILi12ELb1EE7lrotateEi", scope: !1207, file: !167, line: 685, type: !1323, isLocal: false, isDefinition: false, scopeLine: 685, flags: DIFlagPrototyped, isOptimized: false)
!1409 = !DISubprogram(name: "rrotate", linkageName: "_ZN11ap_int_baseILi12ELb1EE7rrotateEi", scope: !1207, file: !167, line: 700, type: !1323, isLocal: false, isDefinition: false, scopeLine: 700, flags: DIFlagPrototyped, isOptimized: false)
!1410 = !DISubprogram(name: "reverse", linkageName: "_ZN11ap_int_baseILi12ELb1EE7reverseEv", scope: !1207, file: !167, line: 715, type: !1402, isLocal: false, isDefinition: false, scopeLine: 715, flags: DIFlagPrototyped, isOptimized: false)
!1411 = !DISubprogram(name: "set_bit", linkageName: "_ZN11ap_int_baseILi12ELb1EE7set_bitEib", scope: !1207, file: !167, line: 721, type: !1406, isLocal: false, isDefinition: false, scopeLine: 721, flags: DIFlagPrototyped, isOptimized: false)
!1412 = !DISubprogram(name: "get_bit", linkageName: "_ZNK11ap_int_baseILi12ELb1EE7get_bitEi", scope: !1207, file: !167, line: 726, type: !1399, isLocal: false, isDefinition: false, scopeLine: 726, flags: DIFlagPrototyped, isOptimized: false)
!1413 = !DISubprogram(name: "b_not", linkageName: "_ZN11ap_int_baseILi12ELb1EE5b_notEv", scope: !1207, file: !167, line: 731, type: !1228, isLocal: false, isDefinition: false, scopeLine: 731, flags: DIFlagPrototyped, isOptimized: false)
!1414 = !DISubprogram(name: "checkOverflowCsim", linkageName: "_ZNK11ap_int_baseILi12ELb1EE17checkOverflowCsimEibb", scope: !1207, file: !167, line: 805, type: !1415, isLocal: false, isDefinition: false, scopeLine: 805, flags: DIFlagPrototyped, isOptimized: false)
!1415 = !DISubroutineType(types: !1416)
!1416 = !{!34, !1225, !32, !34, !34}
!1417 = !DISubprogram(name: "operator++", linkageName: "_ZN11ap_int_baseILi12ELb1EEppEv", scope: !1207, file: !167, line: 910, type: !1402, isLocal: false, isDefinition: false, scopeLine: 910, flags: DIFlagPrototyped, isOptimized: false)
!1418 = !DISubprogram(name: "operator--", linkageName: "_ZN11ap_int_baseILi12ELb1EEmmEv", scope: !1207, file: !167, line: 914, type: !1402, isLocal: false, isDefinition: false, scopeLine: 914, flags: DIFlagPrototyped, isOptimized: false)
!1419 = !DISubprogram(name: "operator++", linkageName: "_ZN11ap_int_baseILi12ELb1EEppEi", scope: !1207, file: !167, line: 922, type: !1420, isLocal: false, isDefinition: false, scopeLine: 922, flags: DIFlagPrototyped, isOptimized: false)
!1420 = !DISubroutineType(types: !1421)
!1421 = !{!1422, !1230, !32}
!1422 = !DIDerivedType(tag: DW_TAG_const_type, baseType: !1423)
!1423 = !DIDerivedType(tag: DW_TAG_typedef, name: "arg1", scope: !1424, file: !167, line: 213, baseType: !1200)
!1424 = distinct !DICompositeType(tag: DW_TAG_structure_type, name: "RType<12, true>", scope: !1207, file: !167, line: 180, size: 8, flags: DIFlagTypePassByValue, elements: !4, templateParams: !1202, identifier: "_ZTSN11ap_int_baseILi12ELb1EE5RTypeILi12ELb1EEE")
!1425 = !DISubprogram(name: "operator--", linkageName: "_ZN11ap_int_baseILi12ELb1EEmmEi", scope: !1207, file: !167, line: 927, type: !1420, isLocal: false, isDefinition: false, scopeLine: 927, flags: DIFlagPrototyped, isOptimized: false)
!1426 = !DISubprogram(name: "operator+", linkageName: "_ZNK11ap_int_baseILi12ELb1EEpsEv", scope: !1207, file: !167, line: 936, type: !1427, isLocal: false, isDefinition: false, scopeLine: 936, flags: DIFlagPrototyped, isOptimized: false)
!1427 = !DISubroutineType(types: !1428)
!1428 = !{!1423, !1225}
!1429 = !DISubprogram(name: "operator-", linkageName: "_ZNK11ap_int_baseILi12ELb1EEngEv", scope: !1207, file: !167, line: 939, type: !1430, isLocal: false, isDefinition: false, scopeLine: 939, flags: DIFlagPrototyped, isOptimized: false)
!1430 = !DISubroutineType(types: !1431)
!1431 = !{!1432, !1225}
!1432 = !DIDerivedType(tag: DW_TAG_typedef, name: "minus", scope: !1433, file: !167, line: 209, baseType: !1434)
!1433 = distinct !DICompositeType(tag: DW_TAG_structure_type, name: "RType<1, false>", scope: !1207, file: !167, line: 180, size: 8, flags: DIFlagTypePassByValue, elements: !4, templateParams: !488, identifier: "_ZTSN11ap_int_baseILi12ELb1EE5RTypeILi1ELb0EEE")
!1434 = !DIDerivedType(tag: DW_TAG_typedef, name: "type", scope: !1435, file: !167, line: 149, baseType: !1438)
!1435 = distinct !DICompositeType(tag: DW_TAG_structure_type, name: "_ap_int_factory<13, true>", file: !167, line: 149, size: 8, flags: DIFlagTypePassByValue, elements: !4, templateParams: !1436, identifier: "_ZTS15_ap_int_factoryILi13ELb1EE")
!1436 = !{!1437, !388}
!1437 = !DITemplateValueParameter(name: "_AP_W2", type: !32, value: i32 13)
!1438 = distinct !DICompositeType(tag: DW_TAG_structure_type, name: "ap_int<13>", file: !392, line: 17, size: 16, flags: DIFlagTypePassByValue, elements: !1439, templateParams: !2138, identifier: "_ZTS6ap_intILi13EE")
!1439 = !{!1440, !2060, !2064, !2068, !2071, !2074, !2077, !2080, !2083, !2086, !2089, !2092, !2095, !2098, !2101, !2104, !2107, !2110, !2113, !2116, !2119, !2125, !2131, !2135}
!1440 = !DIDerivedType(tag: DW_TAG_inheritance, scope: !1438, baseType: !1441)
!1441 = distinct !DICompositeType(tag: DW_TAG_structure_type, name: "ap_int_base<13, true>", file: !733, line: 108, size: 16, flags: DIFlagTypePassByValue, elements: !1442, templateParams: !2058, identifier: "_ZTS11ap_int_baseILi13ELb1EE")
!1442 = !{!1443, !1454, !1455, !1456, !1461, !1465, !1468, !1471, !1474, !1477, !1480, !1483, !1486, !1489, !1492, !1495, !1498, !1501, !1504, !1507, !1510, !1513, !1516, !1521, !1525, !1530, !1531, !1535, !1538, !1541, !1544, !1547, !1550, !1553, !1556, !1559, !1562, !1565, !1568, !1571, !1574, !1578, !1581, !1584, !1587, !1590, !1593, !1596, !1597, !1600, !1603, !1606, !1609, !1612, !1615, !1618, !1621, !1625, !1626, !1627, !1628, !1631, !1632, !1635, !1638, !1639, !1642, !1643, !1644, !1645, !1646, !1647, !1648, !1651, !1652, !1653, !1660, !1661, !1664, !2024, !2025, !2026, !2030, !2033, !2036, !2039, !2040, !2041, !2045, !2046, !2047, !2048, !2049, !2050, !2051, !2052, !2053, !2054, !2055}
!1443 = !DIDerivedType(tag: DW_TAG_inheritance, scope: !1441, baseType: !1444)
!1444 = distinct !DICompositeType(tag: DW_TAG_structure_type, name: "ssdm_int<13, true>", file: !451, line: 468, size: 16, flags: DIFlagTypePassByValue, elements: !1445, templateParams: !1452, identifier: "_ZTS8ssdm_intILi13ELb1EE")
!1445 = !{!1446, !1448}
!1446 = !DIDerivedType(tag: DW_TAG_member, name: "V", scope: !1444, file: !451, line: 470, baseType: !1447, size: 13, align: 16)
!1447 = !DIBasicType(name: "int13", size: 13, encoding: DW_ATE_signed)
!1448 = !DISubprogram(name: "ssdm_int", scope: !1444, file: !451, line: 471, type: !1449, isLocal: false, isDefinition: false, scopeLine: 471, flags: DIFlagPrototyped, isOptimized: false)
!1449 = !DISubroutineType(types: !1450)
!1450 = !{null, !1451}
!1451 = !DIDerivedType(tag: DW_TAG_pointer_type, baseType: !1444, size: 64, flags: DIFlagArtificial | DIFlagObjectPointer)
!1452 = !{!1453, !33}
!1453 = !DITemplateValueParameter(name: "_AP_N", type: !32, value: i32 13)
!1454 = !DIDerivedType(tag: DW_TAG_member, name: "width", scope: !1441, file: !733, line: 130, baseType: !36, flags: DIFlagStaticMember, extraData: i32 13)
!1455 = !DIDerivedType(tag: DW_TAG_member, name: "sign_flag", scope: !1441, file: !733, line: 131, baseType: !88, flags: DIFlagStaticMember, extraData: i1 true)
!1456 = !DISubprogram(name: "countLeadingOnes", linkageName: "_ZNK11ap_int_baseILi13ELb1EE16countLeadingOnesEv", scope: !1441, file: !733, line: 110, type: !1457, isLocal: false, isDefinition: false, scopeLine: 110, flags: DIFlagPrivate | DIFlagPrototyped, isOptimized: false)
!1457 = !DISubroutineType(types: !1458)
!1458 = !{!32, !1459}
!1459 = !DIDerivedType(tag: DW_TAG_pointer_type, baseType: !1460, size: 64, flags: DIFlagArtificial | DIFlagObjectPointer)
!1460 = !DIDerivedType(tag: DW_TAG_const_type, baseType: !1441)
!1461 = !DISubprogram(name: "ap_int_base", scope: !1441, file: !733, line: 175, type: !1462, isLocal: false, isDefinition: false, scopeLine: 175, flags: DIFlagPrototyped, isOptimized: false)
!1462 = !DISubroutineType(types: !1463)
!1463 = !{null, !1464}
!1464 = !DIDerivedType(tag: DW_TAG_pointer_type, baseType: !1441, size: 64, flags: DIFlagArtificial | DIFlagObjectPointer)
!1465 = !DISubprogram(name: "ap_int_base", scope: !1441, file: !733, line: 208, type: !1466, isLocal: false, isDefinition: false, scopeLine: 208, flags: DIFlagPrototyped, isOptimized: false)
!1466 = !DISubroutineType(types: !1467)
!1467 = !{null, !1464, !88}
!1468 = !DISubprogram(name: "ap_int_base", scope: !1441, file: !733, line: 209, type: !1469, isLocal: false, isDefinition: false, scopeLine: 209, flags: DIFlagPrototyped, isOptimized: false)
!1469 = !DISubroutineType(types: !1470)
!1470 = !{null, !1464, !79}
!1471 = !DISubprogram(name: "ap_int_base", scope: !1441, file: !733, line: 210, type: !1472, isLocal: false, isDefinition: false, scopeLine: 210, flags: DIFlagPrototyped, isOptimized: false)
!1472 = !DISubroutineType(types: !1473)
!1473 = !{null, !1464, !95}
!1474 = !DISubprogram(name: "ap_int_base", scope: !1441, file: !733, line: 211, type: !1475, isLocal: false, isDefinition: false, scopeLine: 211, flags: DIFlagPrototyped, isOptimized: false)
!1475 = !DISubroutineType(types: !1476)
!1476 = !{null, !1464, !99}
!1477 = !DISubprogram(name: "ap_int_base", scope: !1441, file: !733, line: 212, type: !1478, isLocal: false, isDefinition: false, scopeLine: 212, flags: DIFlagPrototyped, isOptimized: false)
!1478 = !DISubroutineType(types: !1479)
!1479 = !{null, !1464, !104}
!1480 = !DISubprogram(name: "ap_int_base", scope: !1441, file: !733, line: 213, type: !1481, isLocal: false, isDefinition: false, scopeLine: 213, flags: DIFlagPrototyped, isOptimized: false)
!1481 = !DISubroutineType(types: !1482)
!1482 = !{null, !1464, !108}
!1483 = !DISubprogram(name: "ap_int_base", scope: !1441, file: !733, line: 214, type: !1484, isLocal: false, isDefinition: false, scopeLine: 214, flags: DIFlagPrototyped, isOptimized: false)
!1484 = !DISubroutineType(types: !1485)
!1485 = !{null, !1464, !36}
!1486 = !DISubprogram(name: "ap_int_base", scope: !1441, file: !733, line: 215, type: !1487, isLocal: false, isDefinition: false, scopeLine: 215, flags: DIFlagPrototyped, isOptimized: false)
!1487 = !DISubroutineType(types: !1488)
!1488 = !{null, !1464, !116}
!1489 = !DISubprogram(name: "ap_int_base", scope: !1441, file: !733, line: 216, type: !1490, isLocal: false, isDefinition: false, scopeLine: 216, flags: DIFlagPrototyped, isOptimized: false)
!1490 = !DISubroutineType(types: !1491)
!1491 = !{null, !1464, !121}
!1492 = !DISubprogram(name: "ap_int_base", scope: !1441, file: !733, line: 217, type: !1493, isLocal: false, isDefinition: false, scopeLine: 217, flags: DIFlagPrototyped, isOptimized: false)
!1493 = !DISubroutineType(types: !1494)
!1494 = !{null, !1464, !126}
!1495 = !DISubprogram(name: "ap_int_base", scope: !1441, file: !733, line: 218, type: !1496, isLocal: false, isDefinition: false, scopeLine: 218, flags: DIFlagPrototyped, isOptimized: false)
!1496 = !DISubroutineType(types: !1497)
!1497 = !{null, !1464, !790}
!1498 = !DISubprogram(name: "ap_int_base", scope: !1441, file: !733, line: 219, type: !1499, isLocal: false, isDefinition: false, scopeLine: 219, flags: DIFlagPrototyped, isOptimized: false)
!1499 = !DISubroutineType(types: !1500)
!1500 = !{null, !1464, !794}
!1501 = !DISubprogram(name: "ap_int_base", scope: !1441, file: !733, line: 224, type: !1502, isLocal: false, isDefinition: false, scopeLine: 224, flags: DIFlagPrototyped, isOptimized: false)
!1502 = !DISubroutineType(types: !1503)
!1503 = !{null, !1464, !450}
!1504 = !DISubprogram(name: "ap_int_base", scope: !1441, file: !733, line: 230, type: !1505, isLocal: false, isDefinition: false, scopeLine: 230, flags: DIFlagPrototyped, isOptimized: false)
!1505 = !DISubroutineType(types: !1506)
!1506 = !{null, !1464, !147}
!1507 = !DISubprogram(name: "ap_int_base", scope: !1441, file: !733, line: 289, type: !1508, isLocal: false, isDefinition: false, scopeLine: 289, flags: DIFlagPrototyped, isOptimized: false)
!1508 = !DISubroutineType(types: !1509)
!1509 = !{null, !1464, !143}
!1510 = !DISubprogram(name: "ap_int_base", scope: !1441, file: !733, line: 385, type: !1511, isLocal: false, isDefinition: false, scopeLine: 385, flags: DIFlagPrototyped, isOptimized: false)
!1511 = !DISubroutineType(types: !1512)
!1512 = !{null, !1464, !78}
!1513 = !DISubprogram(name: "ap_int_base", scope: !1441, file: !733, line: 391, type: !1514, isLocal: false, isDefinition: false, scopeLine: 391, flags: DIFlagPrototyped, isOptimized: false)
!1514 = !DISubroutineType(types: !1515)
!1515 = !{null, !1464, !78, !84}
!1516 = !DISubprogram(name: "read", linkageName: "_ZNV11ap_int_baseILi13ELb1EE4readEv", scope: !1441, file: !733, line: 413, type: !1517, isLocal: false, isDefinition: false, scopeLine: 413, flags: DIFlagPrototyped, isOptimized: false)
!1517 = !DISubroutineType(types: !1518)
!1518 = !{!1441, !1519}
!1519 = !DIDerivedType(tag: DW_TAG_pointer_type, baseType: !1520, size: 64, flags: DIFlagArtificial | DIFlagObjectPointer)
!1520 = !DIDerivedType(tag: DW_TAG_volatile_type, baseType: !1441)
!1521 = !DISubprogram(name: "write", linkageName: "_ZNV11ap_int_baseILi13ELb1EE5writeERKS0_", scope: !1441, file: !733, line: 420, type: !1522, isLocal: false, isDefinition: false, scopeLine: 420, flags: DIFlagPrototyped, isOptimized: false)
!1522 = !DISubroutineType(types: !1523)
!1523 = !{null, !1519, !1524}
!1524 = !DIDerivedType(tag: DW_TAG_reference_type, baseType: !1460, size: 64)
!1525 = !DISubprogram(name: "operator=", linkageName: "_ZNV11ap_int_baseILi13ELb1EEaSERVKS0_", scope: !1441, file: !733, line: 432, type: !1526, isLocal: false, isDefinition: false, scopeLine: 432, flags: DIFlagPrototyped, isOptimized: false)
!1526 = !DISubroutineType(types: !1527)
!1527 = !{null, !1519, !1528}
!1528 = !DIDerivedType(tag: DW_TAG_reference_type, baseType: !1529, size: 64)
!1529 = !DIDerivedType(tag: DW_TAG_const_type, baseType: !1520)
!1530 = !DISubprogram(name: "operator=", linkageName: "_ZNV11ap_int_baseILi13ELb1EEaSERKS0_", scope: !1441, file: !733, line: 442, type: !1522, isLocal: false, isDefinition: false, scopeLine: 442, flags: DIFlagPrototyped, isOptimized: false)
!1531 = !DISubprogram(name: "operator=", linkageName: "_ZN11ap_int_baseILi13ELb1EEaSERVKS0_", scope: !1441, file: !733, line: 459, type: !1532, isLocal: false, isDefinition: false, scopeLine: 459, flags: DIFlagPrototyped, isOptimized: false)
!1532 = !DISubroutineType(types: !1533)
!1533 = !{!1534, !1464, !1528}
!1534 = !DIDerivedType(tag: DW_TAG_reference_type, baseType: !1441, size: 64)
!1535 = !DISubprogram(name: "operator=", linkageName: "_ZN11ap_int_baseILi13ELb1EEaSERKS0_", scope: !1441, file: !733, line: 465, type: !1536, isLocal: false, isDefinition: false, scopeLine: 465, flags: DIFlagPrototyped, isOptimized: false)
!1536 = !DISubroutineType(types: !1537)
!1537 = !{!1534, !1464, !1524}
!1538 = !DISubprogram(name: "operator=", linkageName: "_ZN11ap_int_baseILi13ELb1EEaSEb", scope: !1441, file: !733, line: 479, type: !1539, isLocal: false, isDefinition: false, scopeLine: 479, flags: DIFlagPrototyped, isOptimized: false)
!1539 = !DISubroutineType(types: !1540)
!1540 = !{!1534, !1464, !34}
!1541 = !DISubprogram(name: "operator=", linkageName: "_ZN11ap_int_baseILi13ELb1EEaSEc", scope: !1441, file: !733, line: 480, type: !1542, isLocal: false, isDefinition: false, scopeLine: 480, flags: DIFlagPrototyped, isOptimized: false)
!1542 = !DISubroutineType(types: !1543)
!1543 = !{!1534, !1464, !80}
!1544 = !DISubprogram(name: "operator=", linkageName: "_ZN11ap_int_baseILi13ELb1EEaSEa", scope: !1441, file: !733, line: 481, type: !1545, isLocal: false, isDefinition: false, scopeLine: 481, flags: DIFlagPrototyped, isOptimized: false)
!1545 = !DISubroutineType(types: !1546)
!1546 = !{!1534, !1464, !84}
!1547 = !DISubprogram(name: "operator=", linkageName: "_ZN11ap_int_baseILi13ELb1EEaSEh", scope: !1441, file: !733, line: 482, type: !1548, isLocal: false, isDefinition: false, scopeLine: 482, flags: DIFlagPrototyped, isOptimized: false)
!1548 = !DISubroutineType(types: !1549)
!1549 = !{!1534, !1464, !100}
!1550 = !DISubprogram(name: "operator=", linkageName: "_ZN11ap_int_baseILi13ELb1EEaSEs", scope: !1441, file: !733, line: 483, type: !1551, isLocal: false, isDefinition: false, scopeLine: 483, flags: DIFlagPrototyped, isOptimized: false)
!1551 = !DISubroutineType(types: !1552)
!1552 = !{!1534, !1464, !25}
!1553 = !DISubprogram(name: "operator=", linkageName: "_ZN11ap_int_baseILi13ELb1EEaSEt", scope: !1441, file: !733, line: 484, type: !1554, isLocal: false, isDefinition: false, scopeLine: 484, flags: DIFlagPrototyped, isOptimized: false)
!1554 = !DISubroutineType(types: !1555)
!1555 = !{!1534, !1464, !109}
!1556 = !DISubprogram(name: "operator=", linkageName: "_ZN11ap_int_baseILi13ELb1EEaSEi", scope: !1441, file: !733, line: 485, type: !1557, isLocal: false, isDefinition: false, scopeLine: 485, flags: DIFlagPrototyped, isOptimized: false)
!1557 = !DISubroutineType(types: !1558)
!1558 = !{!1534, !1464, !32}
!1559 = !DISubprogram(name: "operator=", linkageName: "_ZN11ap_int_baseILi13ELb1EEaSEj", scope: !1441, file: !733, line: 486, type: !1560, isLocal: false, isDefinition: false, scopeLine: 486, flags: DIFlagPrototyped, isOptimized: false)
!1560 = !DISubroutineType(types: !1561)
!1561 = !{!1534, !1464, !117}
!1562 = !DISubprogram(name: "operator=", linkageName: "_ZN11ap_int_baseILi13ELb1EEaSEl", scope: !1441, file: !733, line: 487, type: !1563, isLocal: false, isDefinition: false, scopeLine: 487, flags: DIFlagPrototyped, isOptimized: false)
!1563 = !DISubroutineType(types: !1564)
!1564 = !{!1534, !1464, !122}
!1565 = !DISubprogram(name: "operator=", linkageName: "_ZN11ap_int_baseILi13ELb1EEaSEm", scope: !1441, file: !733, line: 488, type: !1566, isLocal: false, isDefinition: false, scopeLine: 488, flags: DIFlagPrototyped, isOptimized: false)
!1566 = !DISubroutineType(types: !1567)
!1567 = !{!1534, !1464, !127}
!1568 = !DISubprogram(name: "operator=", linkageName: "_ZN11ap_int_baseILi13ELb1EEaSEx", scope: !1441, file: !733, line: 489, type: !1569, isLocal: false, isDefinition: false, scopeLine: 489, flags: DIFlagPrototyped, isOptimized: false)
!1569 = !DISubroutineType(types: !1570)
!1570 = !{!1534, !1464, !435}
!1571 = !DISubprogram(name: "operator=", linkageName: "_ZN11ap_int_baseILi13ELb1EEaSEy", scope: !1441, file: !733, line: 490, type: !1572, isLocal: false, isDefinition: false, scopeLine: 490, flags: DIFlagPrototyped, isOptimized: false)
!1572 = !DISubroutineType(types: !1573)
!1573 = !{!1534, !1464, !440}
!1574 = !DISubprogram(name: "operator long long", linkageName: "_ZNK11ap_int_baseILi13ELb1EEcvxEv", scope: !1441, file: !733, line: 541, type: !1575, isLocal: false, isDefinition: false, scopeLine: 541, flags: DIFlagPrototyped, isOptimized: false)
!1575 = !DISubroutineType(types: !1576)
!1576 = !{!1577, !1459}
!1577 = !DIDerivedType(tag: DW_TAG_typedef, name: "RetType", scope: !1441, file: !733, line: 128, baseType: !872)
!1578 = !DISubprogram(name: "to_bool", linkageName: "_ZNK11ap_int_baseILi13ELb1EE7to_boolEv", scope: !1441, file: !733, line: 546, type: !1579, isLocal: false, isDefinition: false, scopeLine: 546, flags: DIFlagPrototyped, isOptimized: false)
!1579 = !DISubroutineType(types: !1580)
!1580 = !{!34, !1459}
!1581 = !DISubprogram(name: "to_char", linkageName: "_ZNK11ap_int_baseILi13ELb1EE7to_charEv", scope: !1441, file: !733, line: 547, type: !1582, isLocal: false, isDefinition: false, scopeLine: 547, flags: DIFlagPrototyped, isOptimized: false)
!1582 = !DISubroutineType(types: !1583)
!1583 = !{!80, !1459}
!1584 = !DISubprogram(name: "to_schar", linkageName: "_ZNK11ap_int_baseILi13ELb1EE8to_scharEv", scope: !1441, file: !733, line: 548, type: !1585, isLocal: false, isDefinition: false, scopeLine: 548, flags: DIFlagPrototyped, isOptimized: false)
!1585 = !DISubroutineType(types: !1586)
!1586 = !{!84, !1459}
!1587 = !DISubprogram(name: "to_uchar", linkageName: "_ZNK11ap_int_baseILi13ELb1EE8to_ucharEv", scope: !1441, file: !733, line: 549, type: !1588, isLocal: false, isDefinition: false, scopeLine: 549, flags: DIFlagPrototyped, isOptimized: false)
!1588 = !DISubroutineType(types: !1589)
!1589 = !{!100, !1459}
!1590 = !DISubprogram(name: "to_short", linkageName: "_ZNK11ap_int_baseILi13ELb1EE8to_shortEv", scope: !1441, file: !733, line: 550, type: !1591, isLocal: false, isDefinition: false, scopeLine: 550, flags: DIFlagPrototyped, isOptimized: false)
!1591 = !DISubroutineType(types: !1592)
!1592 = !{!25, !1459}
!1593 = !DISubprogram(name: "to_ushort", linkageName: "_ZNK11ap_int_baseILi13ELb1EE9to_ushortEv", scope: !1441, file: !733, line: 551, type: !1594, isLocal: false, isDefinition: false, scopeLine: 551, flags: DIFlagPrototyped, isOptimized: false)
!1594 = !DISubroutineType(types: !1595)
!1595 = !{!109, !1459}
!1596 = !DISubprogram(name: "to_int", linkageName: "_ZNK11ap_int_baseILi13ELb1EE6to_intEv", scope: !1441, file: !733, line: 552, type: !1457, isLocal: false, isDefinition: false, scopeLine: 552, flags: DIFlagPrototyped, isOptimized: false)
!1597 = !DISubprogram(name: "to_uint", linkageName: "_ZNK11ap_int_baseILi13ELb1EE7to_uintEv", scope: !1441, file: !733, line: 553, type: !1598, isLocal: false, isDefinition: false, scopeLine: 553, flags: DIFlagPrototyped, isOptimized: false)
!1598 = !DISubroutineType(types: !1599)
!1599 = !{!117, !1459}
!1600 = !DISubprogram(name: "to_long", linkageName: "_ZNK11ap_int_baseILi13ELb1EE7to_longEv", scope: !1441, file: !733, line: 554, type: !1601, isLocal: false, isDefinition: false, scopeLine: 554, flags: DIFlagPrototyped, isOptimized: false)
!1601 = !DISubroutineType(types: !1602)
!1602 = !{!122, !1459}
!1603 = !DISubprogram(name: "to_ulong", linkageName: "_ZNK11ap_int_baseILi13ELb1EE8to_ulongEv", scope: !1441, file: !733, line: 555, type: !1604, isLocal: false, isDefinition: false, scopeLine: 555, flags: DIFlagPrototyped, isOptimized: false)
!1604 = !DISubroutineType(types: !1605)
!1605 = !{!127, !1459}
!1606 = !DISubprogram(name: "to_int64", linkageName: "_ZNK11ap_int_baseILi13ELb1EE8to_int64Ev", scope: !1441, file: !733, line: 556, type: !1607, isLocal: false, isDefinition: false, scopeLine: 556, flags: DIFlagPrototyped, isOptimized: false)
!1607 = !DISubroutineType(types: !1608)
!1608 = !{!435, !1459}
!1609 = !DISubprogram(name: "to_uint64", linkageName: "_ZNK11ap_int_baseILi13ELb1EE9to_uint64Ev", scope: !1441, file: !733, line: 557, type: !1610, isLocal: false, isDefinition: false, scopeLine: 557, flags: DIFlagPrototyped, isOptimized: false)
!1610 = !DISubroutineType(types: !1611)
!1611 = !{!440, !1459}
!1612 = !DISubprogram(name: "to_half", linkageName: "_ZNK11ap_int_baseILi13ELb1EE7to_halfEv", scope: !1441, file: !733, line: 558, type: !1613, isLocal: false, isDefinition: false, scopeLine: 558, flags: DIFlagPrototyped, isOptimized: false)
!1613 = !DISubroutineType(types: !1614)
!1614 = !{!450, !1459}
!1615 = !DISubprogram(name: "to_float", linkageName: "_ZNK11ap_int_baseILi13ELb1EE8to_floatEv", scope: !1441, file: !733, line: 559, type: !1616, isLocal: false, isDefinition: false, scopeLine: 559, flags: DIFlagPrototyped, isOptimized: false)
!1616 = !DISubroutineType(types: !1617)
!1617 = !{!147, !1459}
!1618 = !DISubprogram(name: "to_double", linkageName: "_ZNK11ap_int_baseILi13ELb1EE9to_doubleEv", scope: !1441, file: !733, line: 560, type: !1619, isLocal: false, isDefinition: false, scopeLine: 560, flags: DIFlagPrototyped, isOptimized: false)
!1619 = !DISubroutineType(types: !1620)
!1620 = !{!143, !1459}
!1621 = !DISubprogram(name: "length", linkageName: "_ZNVK11ap_int_baseILi13ELb1EE6lengthEv", scope: !1441, file: !733, line: 584, type: !1622, isLocal: false, isDefinition: false, scopeLine: 584, flags: DIFlagPrototyped, isOptimized: false)
!1622 = !DISubroutineType(types: !1623)
!1623 = !{!32, !1624}
!1624 = !DIDerivedType(tag: DW_TAG_pointer_type, baseType: !1529, size: 64, flags: DIFlagArtificial | DIFlagObjectPointer)
!1625 = !DISubprogram(name: "iszero", linkageName: "_ZNK11ap_int_baseILi13ELb1EE6iszeroEv", scope: !1441, file: !733, line: 587, type: !1579, isLocal: false, isDefinition: false, scopeLine: 587, flags: DIFlagPrototyped, isOptimized: false)
!1626 = !DISubprogram(name: "is_zero", linkageName: "_ZNK11ap_int_baseILi13ELb1EE7is_zeroEv", scope: !1441, file: !733, line: 590, type: !1579, isLocal: false, isDefinition: false, scopeLine: 590, flags: DIFlagPrototyped, isOptimized: false)
!1627 = !DISubprogram(name: "sign", linkageName: "_ZNK11ap_int_baseILi13ELb1EE4signEv", scope: !1441, file: !733, line: 593, type: !1579, isLocal: false, isDefinition: false, scopeLine: 593, flags: DIFlagPrototyped, isOptimized: false)
!1628 = !DISubprogram(name: "clear", linkageName: "_ZN11ap_int_baseILi13ELb1EE5clearEi", scope: !1441, file: !733, line: 602, type: !1629, isLocal: false, isDefinition: false, scopeLine: 602, flags: DIFlagPrototyped, isOptimized: false)
!1629 = !DISubroutineType(types: !1630)
!1630 = !{null, !1464, !32}
!1631 = !DISubprogram(name: "invert", linkageName: "_ZN11ap_int_baseILi13ELb1EE6invertEi", scope: !1441, file: !733, line: 608, type: !1629, isLocal: false, isDefinition: false, scopeLine: 608, flags: DIFlagPrototyped, isOptimized: false)
!1632 = !DISubprogram(name: "test", linkageName: "_ZNK11ap_int_baseILi13ELb1EE4testEi", scope: !1441, file: !733, line: 617, type: !1633, isLocal: false, isDefinition: false, scopeLine: 617, flags: DIFlagPrototyped, isOptimized: false)
!1633 = !DISubroutineType(types: !1634)
!1634 = !{!34, !1459, !32}
!1635 = !DISubprogram(name: "get", linkageName: "_ZN11ap_int_baseILi13ELb1EE3getEv", scope: !1441, file: !733, line: 623, type: !1636, isLocal: false, isDefinition: false, scopeLine: 623, flags: DIFlagPrototyped, isOptimized: false)
!1636 = !DISubroutineType(types: !1637)
!1637 = !{!1534, !1464}
!1638 = !DISubprogram(name: "set", linkageName: "_ZN11ap_int_baseILi13ELb1EE3setEi", scope: !1441, file: !733, line: 626, type: !1629, isLocal: false, isDefinition: false, scopeLine: 626, flags: DIFlagPrototyped, isOptimized: false)
!1639 = !DISubprogram(name: "set", linkageName: "_ZN11ap_int_baseILi13ELb1EE3setEib", scope: !1441, file: !733, line: 632, type: !1640, isLocal: false, isDefinition: false, scopeLine: 632, flags: DIFlagPrototyped, isOptimized: false)
!1640 = !DISubroutineType(types: !1641)
!1641 = !{null, !1464, !32, !34}
!1642 = !DISubprogram(name: "lrotate", linkageName: "_ZN11ap_int_baseILi13ELb1EE7lrotateEi", scope: !1441, file: !733, line: 639, type: !1557, isLocal: false, isDefinition: false, scopeLine: 639, flags: DIFlagPrototyped, isOptimized: false)
!1643 = !DISubprogram(name: "rrotate", linkageName: "_ZN11ap_int_baseILi13ELb1EE7rrotateEi", scope: !1441, file: !733, line: 654, type: !1557, isLocal: false, isDefinition: false, scopeLine: 654, flags: DIFlagPrototyped, isOptimized: false)
!1644 = !DISubprogram(name: "reverse", linkageName: "_ZN11ap_int_baseILi13ELb1EE7reverseEv", scope: !1441, file: !733, line: 669, type: !1636, isLocal: false, isDefinition: false, scopeLine: 669, flags: DIFlagPrototyped, isOptimized: false)
!1645 = !DISubprogram(name: "set_bit", linkageName: "_ZN11ap_int_baseILi13ELb1EE7set_bitEib", scope: !1441, file: !733, line: 675, type: !1640, isLocal: false, isDefinition: false, scopeLine: 675, flags: DIFlagPrototyped, isOptimized: false)
!1646 = !DISubprogram(name: "get_bit", linkageName: "_ZNK11ap_int_baseILi13ELb1EE7get_bitEi", scope: !1441, file: !733, line: 680, type: !1633, isLocal: false, isDefinition: false, scopeLine: 680, flags: DIFlagPrototyped, isOptimized: false)
!1647 = !DISubprogram(name: "b_not", linkageName: "_ZN11ap_int_baseILi13ELb1EE5b_notEv", scope: !1441, file: !733, line: 685, type: !1462, isLocal: false, isDefinition: false, scopeLine: 685, flags: DIFlagPrototyped, isOptimized: false)
!1648 = !DISubprogram(name: "checkOverflowCsim", linkageName: "_ZNK11ap_int_baseILi13ELb1EE17checkOverflowCsimEibb", scope: !1441, file: !733, line: 759, type: !1649, isLocal: false, isDefinition: false, scopeLine: 759, flags: DIFlagPrototyped, isOptimized: false)
!1649 = !DISubroutineType(types: !1650)
!1650 = !{!34, !1459, !32, !34, !34}
!1651 = !DISubprogram(name: "operator++", linkageName: "_ZN11ap_int_baseILi13ELb1EEppEv", scope: !1441, file: !733, line: 864, type: !1636, isLocal: false, isDefinition: false, scopeLine: 864, flags: DIFlagPrototyped, isOptimized: false)
!1652 = !DISubprogram(name: "operator--", linkageName: "_ZN11ap_int_baseILi13ELb1EEmmEv", scope: !1441, file: !733, line: 868, type: !1636, isLocal: false, isDefinition: false, scopeLine: 868, flags: DIFlagPrototyped, isOptimized: false)
!1653 = !DISubprogram(name: "operator++", linkageName: "_ZN11ap_int_baseILi13ELb1EEppEi", scope: !1441, file: !733, line: 876, type: !1654, isLocal: false, isDefinition: false, scopeLine: 876, flags: DIFlagPrototyped, isOptimized: false)
!1654 = !DISubroutineType(types: !1655)
!1655 = !{!1656, !1464, !32}
!1656 = !DIDerivedType(tag: DW_TAG_const_type, baseType: !1657)
!1657 = !DIDerivedType(tag: DW_TAG_typedef, name: "arg1", scope: !1658, file: !733, line: 167, baseType: !1659)
!1658 = distinct !DICompositeType(tag: DW_TAG_structure_type, name: "RType<13, true>", scope: !1441, file: !733, line: 134, size: 8, flags: DIFlagTypePassByValue, elements: !4, templateParams: !1436, identifier: "_ZTSN11ap_int_baseILi13ELb1EE5RTypeILi13ELb1EEE")
!1659 = !DIDerivedType(tag: DW_TAG_typedef, name: "type", scope: !1435, file: !733, line: 103, baseType: !1438)
!1660 = !DISubprogram(name: "operator--", linkageName: "_ZN11ap_int_baseILi13ELb1EEmmEi", scope: !1441, file: !733, line: 881, type: !1654, isLocal: false, isDefinition: false, scopeLine: 881, flags: DIFlagPrototyped, isOptimized: false)
!1661 = !DISubprogram(name: "operator+", linkageName: "_ZNK11ap_int_baseILi13ELb1EEpsEv", scope: !1441, file: !733, line: 890, type: !1662, isLocal: false, isDefinition: false, scopeLine: 890, flags: DIFlagPrototyped, isOptimized: false)
!1662 = !DISubroutineType(types: !1663)
!1663 = !{!1657, !1459}
!1664 = !DISubprogram(name: "operator-", linkageName: "_ZNK11ap_int_baseILi13ELb1EEngEv", scope: !1441, file: !733, line: 893, type: !1665, isLocal: false, isDefinition: false, scopeLine: 893, flags: DIFlagPrototyped, isOptimized: false)
!1665 = !DISubroutineType(types: !1666)
!1666 = !{!1667, !1459}
!1667 = !DIDerivedType(tag: DW_TAG_typedef, name: "minus", scope: !1668, file: !733, line: 163, baseType: !1669)
!1668 = distinct !DICompositeType(tag: DW_TAG_structure_type, name: "RType<1, false>", scope: !1441, file: !733, line: 134, size: 8, flags: DIFlagTypePassByValue, elements: !4, templateParams: !488, identifier: "_ZTSN11ap_int_baseILi13ELb1EE5RTypeILi1ELb0EEE")
!1669 = !DIDerivedType(tag: DW_TAG_typedef, name: "type", scope: !1670, file: !733, line: 103, baseType: !1673)
!1670 = distinct !DICompositeType(tag: DW_TAG_structure_type, name: "_ap_int_factory<14, true>", file: !733, line: 103, size: 8, flags: DIFlagTypePassByValue, elements: !4, templateParams: !1671, identifier: "_ZTS15_ap_int_factoryILi14ELb1EE")
!1671 = !{!1672, !388}
!1672 = !DITemplateValueParameter(name: "_AP_W2", type: !32, value: i32 14)
!1673 = distinct !DICompositeType(tag: DW_TAG_structure_type, name: "ap_int<14>", file: !392, line: 17, size: 16, flags: DIFlagTypePassByValue, elements: !1674, templateParams: !2023, identifier: "_ZTS6ap_intILi14EE")
!1674 = !{!1675, !1945, !1949, !1953, !1956, !1959, !1962, !1965, !1968, !1971, !1974, !1977, !1980, !1983, !1986, !1989, !1992, !1995, !1998, !2001, !2004, !2010, !2016, !2020}
!1675 = !DIDerivedType(tag: DW_TAG_inheritance, scope: !1673, baseType: !1676)
!1676 = distinct !DICompositeType(tag: DW_TAG_structure_type, name: "ap_int_base<14, true>", file: !733, line: 108, size: 16, flags: DIFlagTypePassByValue, elements: !1677, templateParams: !1943, identifier: "_ZTS11ap_int_baseILi14ELb1EE")
!1677 = !{!1678, !1689, !1690, !1691, !1696, !1700, !1703, !1706, !1709, !1712, !1715, !1718, !1721, !1724, !1727, !1730, !1733, !1736, !1739, !1742, !1745, !1748, !1751, !1756, !1760, !1765, !1766, !1770, !1773, !1776, !1779, !1782, !1785, !1788, !1791, !1794, !1797, !1800, !1803, !1806, !1809, !1813, !1816, !1819, !1822, !1825, !1828, !1831, !1832, !1835, !1838, !1841, !1844, !1847, !1850, !1853, !1856, !1860, !1861, !1862, !1863, !1866, !1867, !1870, !1873, !1874, !1877, !1878, !1879, !1880, !1881, !1882, !1883, !1886, !1887, !1888, !1894, !1895, !1898, !1908, !1909, !1910, !1914, !1917, !1920, !1923, !1924, !1925, !1929, !1930, !1931, !1932, !1933, !1934, !1935, !1936, !1937, !1938, !1939}
!1678 = !DIDerivedType(tag: DW_TAG_inheritance, scope: !1676, baseType: !1679)
!1679 = distinct !DICompositeType(tag: DW_TAG_structure_type, name: "ssdm_int<14, true>", file: !451, line: 468, size: 16, flags: DIFlagTypePassByValue, elements: !1680, templateParams: !1687, identifier: "_ZTS8ssdm_intILi14ELb1EE")
!1680 = !{!1681, !1683}
!1681 = !DIDerivedType(tag: DW_TAG_member, name: "V", scope: !1679, file: !451, line: 470, baseType: !1682, size: 14, align: 16)
!1682 = !DIBasicType(name: "int14", size: 14, encoding: DW_ATE_signed)
!1683 = !DISubprogram(name: "ssdm_int", scope: !1679, file: !451, line: 471, type: !1684, isLocal: false, isDefinition: false, scopeLine: 471, flags: DIFlagPrototyped, isOptimized: false)
!1684 = !DISubroutineType(types: !1685)
!1685 = !{null, !1686}
!1686 = !DIDerivedType(tag: DW_TAG_pointer_type, baseType: !1679, size: 64, flags: DIFlagArtificial | DIFlagObjectPointer)
!1687 = !{!1688, !33}
!1688 = !DITemplateValueParameter(name: "_AP_N", type: !32, value: i32 14)
!1689 = !DIDerivedType(tag: DW_TAG_member, name: "width", scope: !1676, file: !733, line: 130, baseType: !36, flags: DIFlagStaticMember, extraData: i32 14)
!1690 = !DIDerivedType(tag: DW_TAG_member, name: "sign_flag", scope: !1676, file: !733, line: 131, baseType: !88, flags: DIFlagStaticMember, extraData: i1 true)
!1691 = !DISubprogram(name: "countLeadingOnes", linkageName: "_ZNK11ap_int_baseILi14ELb1EE16countLeadingOnesEv", scope: !1676, file: !733, line: 110, type: !1692, isLocal: false, isDefinition: false, scopeLine: 110, flags: DIFlagPrivate | DIFlagPrototyped, isOptimized: false)
!1692 = !DISubroutineType(types: !1693)
!1693 = !{!32, !1694}
!1694 = !DIDerivedType(tag: DW_TAG_pointer_type, baseType: !1695, size: 64, flags: DIFlagArtificial | DIFlagObjectPointer)
!1695 = !DIDerivedType(tag: DW_TAG_const_type, baseType: !1676)
!1696 = !DISubprogram(name: "ap_int_base", scope: !1676, file: !733, line: 175, type: !1697, isLocal: false, isDefinition: false, scopeLine: 175, flags: DIFlagPrototyped, isOptimized: false)
!1697 = !DISubroutineType(types: !1698)
!1698 = !{null, !1699}
!1699 = !DIDerivedType(tag: DW_TAG_pointer_type, baseType: !1676, size: 64, flags: DIFlagArtificial | DIFlagObjectPointer)
!1700 = !DISubprogram(name: "ap_int_base", scope: !1676, file: !733, line: 208, type: !1701, isLocal: false, isDefinition: false, scopeLine: 208, flags: DIFlagPrototyped, isOptimized: false)
!1701 = !DISubroutineType(types: !1702)
!1702 = !{null, !1699, !88}
!1703 = !DISubprogram(name: "ap_int_base", scope: !1676, file: !733, line: 209, type: !1704, isLocal: false, isDefinition: false, scopeLine: 209, flags: DIFlagPrototyped, isOptimized: false)
!1704 = !DISubroutineType(types: !1705)
!1705 = !{null, !1699, !79}
!1706 = !DISubprogram(name: "ap_int_base", scope: !1676, file: !733, line: 210, type: !1707, isLocal: false, isDefinition: false, scopeLine: 210, flags: DIFlagPrototyped, isOptimized: false)
!1707 = !DISubroutineType(types: !1708)
!1708 = !{null, !1699, !95}
!1709 = !DISubprogram(name: "ap_int_base", scope: !1676, file: !733, line: 211, type: !1710, isLocal: false, isDefinition: false, scopeLine: 211, flags: DIFlagPrototyped, isOptimized: false)
!1710 = !DISubroutineType(types: !1711)
!1711 = !{null, !1699, !99}
!1712 = !DISubprogram(name: "ap_int_base", scope: !1676, file: !733, line: 212, type: !1713, isLocal: false, isDefinition: false, scopeLine: 212, flags: DIFlagPrototyped, isOptimized: false)
!1713 = !DISubroutineType(types: !1714)
!1714 = !{null, !1699, !104}
!1715 = !DISubprogram(name: "ap_int_base", scope: !1676, file: !733, line: 213, type: !1716, isLocal: false, isDefinition: false, scopeLine: 213, flags: DIFlagPrototyped, isOptimized: false)
!1716 = !DISubroutineType(types: !1717)
!1717 = !{null, !1699, !108}
!1718 = !DISubprogram(name: "ap_int_base", scope: !1676, file: !733, line: 214, type: !1719, isLocal: false, isDefinition: false, scopeLine: 214, flags: DIFlagPrototyped, isOptimized: false)
!1719 = !DISubroutineType(types: !1720)
!1720 = !{null, !1699, !36}
!1721 = !DISubprogram(name: "ap_int_base", scope: !1676, file: !733, line: 215, type: !1722, isLocal: false, isDefinition: false, scopeLine: 215, flags: DIFlagPrototyped, isOptimized: false)
!1722 = !DISubroutineType(types: !1723)
!1723 = !{null, !1699, !116}
!1724 = !DISubprogram(name: "ap_int_base", scope: !1676, file: !733, line: 216, type: !1725, isLocal: false, isDefinition: false, scopeLine: 216, flags: DIFlagPrototyped, isOptimized: false)
!1725 = !DISubroutineType(types: !1726)
!1726 = !{null, !1699, !121}
!1727 = !DISubprogram(name: "ap_int_base", scope: !1676, file: !733, line: 217, type: !1728, isLocal: false, isDefinition: false, scopeLine: 217, flags: DIFlagPrototyped, isOptimized: false)
!1728 = !DISubroutineType(types: !1729)
!1729 = !{null, !1699, !126}
!1730 = !DISubprogram(name: "ap_int_base", scope: !1676, file: !733, line: 218, type: !1731, isLocal: false, isDefinition: false, scopeLine: 218, flags: DIFlagPrototyped, isOptimized: false)
!1731 = !DISubroutineType(types: !1732)
!1732 = !{null, !1699, !790}
!1733 = !DISubprogram(name: "ap_int_base", scope: !1676, file: !733, line: 219, type: !1734, isLocal: false, isDefinition: false, scopeLine: 219, flags: DIFlagPrototyped, isOptimized: false)
!1734 = !DISubroutineType(types: !1735)
!1735 = !{null, !1699, !794}
!1736 = !DISubprogram(name: "ap_int_base", scope: !1676, file: !733, line: 224, type: !1737, isLocal: false, isDefinition: false, scopeLine: 224, flags: DIFlagPrototyped, isOptimized: false)
!1737 = !DISubroutineType(types: !1738)
!1738 = !{null, !1699, !450}
!1739 = !DISubprogram(name: "ap_int_base", scope: !1676, file: !733, line: 230, type: !1740, isLocal: false, isDefinition: false, scopeLine: 230, flags: DIFlagPrototyped, isOptimized: false)
!1740 = !DISubroutineType(types: !1741)
!1741 = !{null, !1699, !147}
!1742 = !DISubprogram(name: "ap_int_base", scope: !1676, file: !733, line: 289, type: !1743, isLocal: false, isDefinition: false, scopeLine: 289, flags: DIFlagPrototyped, isOptimized: false)
!1743 = !DISubroutineType(types: !1744)
!1744 = !{null, !1699, !143}
!1745 = !DISubprogram(name: "ap_int_base", scope: !1676, file: !733, line: 385, type: !1746, isLocal: false, isDefinition: false, scopeLine: 385, flags: DIFlagPrototyped, isOptimized: false)
!1746 = !DISubroutineType(types: !1747)
!1747 = !{null, !1699, !78}
!1748 = !DISubprogram(name: "ap_int_base", scope: !1676, file: !733, line: 391, type: !1749, isLocal: false, isDefinition: false, scopeLine: 391, flags: DIFlagPrototyped, isOptimized: false)
!1749 = !DISubroutineType(types: !1750)
!1750 = !{null, !1699, !78, !84}
!1751 = !DISubprogram(name: "read", linkageName: "_ZNV11ap_int_baseILi14ELb1EE4readEv", scope: !1676, file: !733, line: 413, type: !1752, isLocal: false, isDefinition: false, scopeLine: 413, flags: DIFlagPrototyped, isOptimized: false)
!1752 = !DISubroutineType(types: !1753)
!1753 = !{!1676, !1754}
!1754 = !DIDerivedType(tag: DW_TAG_pointer_type, baseType: !1755, size: 64, flags: DIFlagArtificial | DIFlagObjectPointer)
!1755 = !DIDerivedType(tag: DW_TAG_volatile_type, baseType: !1676)
!1756 = !DISubprogram(name: "write", linkageName: "_ZNV11ap_int_baseILi14ELb1EE5writeERKS0_", scope: !1676, file: !733, line: 420, type: !1757, isLocal: false, isDefinition: false, scopeLine: 420, flags: DIFlagPrototyped, isOptimized: false)
!1757 = !DISubroutineType(types: !1758)
!1758 = !{null, !1754, !1759}
!1759 = !DIDerivedType(tag: DW_TAG_reference_type, baseType: !1695, size: 64)
!1760 = !DISubprogram(name: "operator=", linkageName: "_ZNV11ap_int_baseILi14ELb1EEaSERVKS0_", scope: !1676, file: !733, line: 432, type: !1761, isLocal: false, isDefinition: false, scopeLine: 432, flags: DIFlagPrototyped, isOptimized: false)
!1761 = !DISubroutineType(types: !1762)
!1762 = !{null, !1754, !1763}
!1763 = !DIDerivedType(tag: DW_TAG_reference_type, baseType: !1764, size: 64)
!1764 = !DIDerivedType(tag: DW_TAG_const_type, baseType: !1755)
!1765 = !DISubprogram(name: "operator=", linkageName: "_ZNV11ap_int_baseILi14ELb1EEaSERKS0_", scope: !1676, file: !733, line: 442, type: !1757, isLocal: false, isDefinition: false, scopeLine: 442, flags: DIFlagPrototyped, isOptimized: false)
!1766 = !DISubprogram(name: "operator=", linkageName: "_ZN11ap_int_baseILi14ELb1EEaSERVKS0_", scope: !1676, file: !733, line: 459, type: !1767, isLocal: false, isDefinition: false, scopeLine: 459, flags: DIFlagPrototyped, isOptimized: false)
!1767 = !DISubroutineType(types: !1768)
!1768 = !{!1769, !1699, !1763}
!1769 = !DIDerivedType(tag: DW_TAG_reference_type, baseType: !1676, size: 64)
!1770 = !DISubprogram(name: "operator=", linkageName: "_ZN11ap_int_baseILi14ELb1EEaSERKS0_", scope: !1676, file: !733, line: 465, type: !1771, isLocal: false, isDefinition: false, scopeLine: 465, flags: DIFlagPrototyped, isOptimized: false)
!1771 = !DISubroutineType(types: !1772)
!1772 = !{!1769, !1699, !1759}
!1773 = !DISubprogram(name: "operator=", linkageName: "_ZN11ap_int_baseILi14ELb1EEaSEb", scope: !1676, file: !733, line: 479, type: !1774, isLocal: false, isDefinition: false, scopeLine: 479, flags: DIFlagPrototyped, isOptimized: false)
!1774 = !DISubroutineType(types: !1775)
!1775 = !{!1769, !1699, !34}
!1776 = !DISubprogram(name: "operator=", linkageName: "_ZN11ap_int_baseILi14ELb1EEaSEc", scope: !1676, file: !733, line: 480, type: !1777, isLocal: false, isDefinition: false, scopeLine: 480, flags: DIFlagPrototyped, isOptimized: false)
!1777 = !DISubroutineType(types: !1778)
!1778 = !{!1769, !1699, !80}
!1779 = !DISubprogram(name: "operator=", linkageName: "_ZN11ap_int_baseILi14ELb1EEaSEa", scope: !1676, file: !733, line: 481, type: !1780, isLocal: false, isDefinition: false, scopeLine: 481, flags: DIFlagPrototyped, isOptimized: false)
!1780 = !DISubroutineType(types: !1781)
!1781 = !{!1769, !1699, !84}
!1782 = !DISubprogram(name: "operator=", linkageName: "_ZN11ap_int_baseILi14ELb1EEaSEh", scope: !1676, file: !733, line: 482, type: !1783, isLocal: false, isDefinition: false, scopeLine: 482, flags: DIFlagPrototyped, isOptimized: false)
!1783 = !DISubroutineType(types: !1784)
!1784 = !{!1769, !1699, !100}
!1785 = !DISubprogram(name: "operator=", linkageName: "_ZN11ap_int_baseILi14ELb1EEaSEs", scope: !1676, file: !733, line: 483, type: !1786, isLocal: false, isDefinition: false, scopeLine: 483, flags: DIFlagPrototyped, isOptimized: false)
!1786 = !DISubroutineType(types: !1787)
!1787 = !{!1769, !1699, !25}
!1788 = !DISubprogram(name: "operator=", linkageName: "_ZN11ap_int_baseILi14ELb1EEaSEt", scope: !1676, file: !733, line: 484, type: !1789, isLocal: false, isDefinition: false, scopeLine: 484, flags: DIFlagPrototyped, isOptimized: false)
!1789 = !DISubroutineType(types: !1790)
!1790 = !{!1769, !1699, !109}
!1791 = !DISubprogram(name: "operator=", linkageName: "_ZN11ap_int_baseILi14ELb1EEaSEi", scope: !1676, file: !733, line: 485, type: !1792, isLocal: false, isDefinition: false, scopeLine: 485, flags: DIFlagPrototyped, isOptimized: false)
!1792 = !DISubroutineType(types: !1793)
!1793 = !{!1769, !1699, !32}
!1794 = !DISubprogram(name: "operator=", linkageName: "_ZN11ap_int_baseILi14ELb1EEaSEj", scope: !1676, file: !733, line: 486, type: !1795, isLocal: false, isDefinition: false, scopeLine: 486, flags: DIFlagPrototyped, isOptimized: false)
!1795 = !DISubroutineType(types: !1796)
!1796 = !{!1769, !1699, !117}
!1797 = !DISubprogram(name: "operator=", linkageName: "_ZN11ap_int_baseILi14ELb1EEaSEl", scope: !1676, file: !733, line: 487, type: !1798, isLocal: false, isDefinition: false, scopeLine: 487, flags: DIFlagPrototyped, isOptimized: false)
!1798 = !DISubroutineType(types: !1799)
!1799 = !{!1769, !1699, !122}
!1800 = !DISubprogram(name: "operator=", linkageName: "_ZN11ap_int_baseILi14ELb1EEaSEm", scope: !1676, file: !733, line: 488, type: !1801, isLocal: false, isDefinition: false, scopeLine: 488, flags: DIFlagPrototyped, isOptimized: false)
!1801 = !DISubroutineType(types: !1802)
!1802 = !{!1769, !1699, !127}
!1803 = !DISubprogram(name: "operator=", linkageName: "_ZN11ap_int_baseILi14ELb1EEaSEx", scope: !1676, file: !733, line: 489, type: !1804, isLocal: false, isDefinition: false, scopeLine: 489, flags: DIFlagPrototyped, isOptimized: false)
!1804 = !DISubroutineType(types: !1805)
!1805 = !{!1769, !1699, !435}
!1806 = !DISubprogram(name: "operator=", linkageName: "_ZN11ap_int_baseILi14ELb1EEaSEy", scope: !1676, file: !733, line: 490, type: !1807, isLocal: false, isDefinition: false, scopeLine: 490, flags: DIFlagPrototyped, isOptimized: false)
!1807 = !DISubroutineType(types: !1808)
!1808 = !{!1769, !1699, !440}
!1809 = !DISubprogram(name: "operator long long", linkageName: "_ZNK11ap_int_baseILi14ELb1EEcvxEv", scope: !1676, file: !733, line: 541, type: !1810, isLocal: false, isDefinition: false, scopeLine: 541, flags: DIFlagPrototyped, isOptimized: false)
!1810 = !DISubroutineType(types: !1811)
!1811 = !{!1812, !1694}
!1812 = !DIDerivedType(tag: DW_TAG_typedef, name: "RetType", scope: !1676, file: !733, line: 128, baseType: !872)
!1813 = !DISubprogram(name: "to_bool", linkageName: "_ZNK11ap_int_baseILi14ELb1EE7to_boolEv", scope: !1676, file: !733, line: 546, type: !1814, isLocal: false, isDefinition: false, scopeLine: 546, flags: DIFlagPrototyped, isOptimized: false)
!1814 = !DISubroutineType(types: !1815)
!1815 = !{!34, !1694}
!1816 = !DISubprogram(name: "to_char", linkageName: "_ZNK11ap_int_baseILi14ELb1EE7to_charEv", scope: !1676, file: !733, line: 547, type: !1817, isLocal: false, isDefinition: false, scopeLine: 547, flags: DIFlagPrototyped, isOptimized: false)
!1817 = !DISubroutineType(types: !1818)
!1818 = !{!80, !1694}
!1819 = !DISubprogram(name: "to_schar", linkageName: "_ZNK11ap_int_baseILi14ELb1EE8to_scharEv", scope: !1676, file: !733, line: 548, type: !1820, isLocal: false, isDefinition: false, scopeLine: 548, flags: DIFlagPrototyped, isOptimized: false)
!1820 = !DISubroutineType(types: !1821)
!1821 = !{!84, !1694}
!1822 = !DISubprogram(name: "to_uchar", linkageName: "_ZNK11ap_int_baseILi14ELb1EE8to_ucharEv", scope: !1676, file: !733, line: 549, type: !1823, isLocal: false, isDefinition: false, scopeLine: 549, flags: DIFlagPrototyped, isOptimized: false)
!1823 = !DISubroutineType(types: !1824)
!1824 = !{!100, !1694}
!1825 = !DISubprogram(name: "to_short", linkageName: "_ZNK11ap_int_baseILi14ELb1EE8to_shortEv", scope: !1676, file: !733, line: 550, type: !1826, isLocal: false, isDefinition: false, scopeLine: 550, flags: DIFlagPrototyped, isOptimized: false)
!1826 = !DISubroutineType(types: !1827)
!1827 = !{!25, !1694}
!1828 = !DISubprogram(name: "to_ushort", linkageName: "_ZNK11ap_int_baseILi14ELb1EE9to_ushortEv", scope: !1676, file: !733, line: 551, type: !1829, isLocal: false, isDefinition: false, scopeLine: 551, flags: DIFlagPrototyped, isOptimized: false)
!1829 = !DISubroutineType(types: !1830)
!1830 = !{!109, !1694}
!1831 = !DISubprogram(name: "to_int", linkageName: "_ZNK11ap_int_baseILi14ELb1EE6to_intEv", scope: !1676, file: !733, line: 552, type: !1692, isLocal: false, isDefinition: false, scopeLine: 552, flags: DIFlagPrototyped, isOptimized: false)
!1832 = !DISubprogram(name: "to_uint", linkageName: "_ZNK11ap_int_baseILi14ELb1EE7to_uintEv", scope: !1676, file: !733, line: 553, type: !1833, isLocal: false, isDefinition: false, scopeLine: 553, flags: DIFlagPrototyped, isOptimized: false)
!1833 = !DISubroutineType(types: !1834)
!1834 = !{!117, !1694}
!1835 = !DISubprogram(name: "to_long", linkageName: "_ZNK11ap_int_baseILi14ELb1EE7to_longEv", scope: !1676, file: !733, line: 554, type: !1836, isLocal: false, isDefinition: false, scopeLine: 554, flags: DIFlagPrototyped, isOptimized: false)
!1836 = !DISubroutineType(types: !1837)
!1837 = !{!122, !1694}
!1838 = !DISubprogram(name: "to_ulong", linkageName: "_ZNK11ap_int_baseILi14ELb1EE8to_ulongEv", scope: !1676, file: !733, line: 555, type: !1839, isLocal: false, isDefinition: false, scopeLine: 555, flags: DIFlagPrototyped, isOptimized: false)
!1839 = !DISubroutineType(types: !1840)
!1840 = !{!127, !1694}
!1841 = !DISubprogram(name: "to_int64", linkageName: "_ZNK11ap_int_baseILi14ELb1EE8to_int64Ev", scope: !1676, file: !733, line: 556, type: !1842, isLocal: false, isDefinition: false, scopeLine: 556, flags: DIFlagPrototyped, isOptimized: false)
!1842 = !DISubroutineType(types: !1843)
!1843 = !{!435, !1694}
!1844 = !DISubprogram(name: "to_uint64", linkageName: "_ZNK11ap_int_baseILi14ELb1EE9to_uint64Ev", scope: !1676, file: !733, line: 557, type: !1845, isLocal: false, isDefinition: false, scopeLine: 557, flags: DIFlagPrototyped, isOptimized: false)
!1845 = !DISubroutineType(types: !1846)
!1846 = !{!440, !1694}
!1847 = !DISubprogram(name: "to_half", linkageName: "_ZNK11ap_int_baseILi14ELb1EE7to_halfEv", scope: !1676, file: !733, line: 558, type: !1848, isLocal: false, isDefinition: false, scopeLine: 558, flags: DIFlagPrototyped, isOptimized: false)
!1848 = !DISubroutineType(types: !1849)
!1849 = !{!450, !1694}
!1850 = !DISubprogram(name: "to_float", linkageName: "_ZNK11ap_int_baseILi14ELb1EE8to_floatEv", scope: !1676, file: !733, line: 559, type: !1851, isLocal: false, isDefinition: false, scopeLine: 559, flags: DIFlagPrototyped, isOptimized: false)
!1851 = !DISubroutineType(types: !1852)
!1852 = !{!147, !1694}
!1853 = !DISubprogram(name: "to_double", linkageName: "_ZNK11ap_int_baseILi14ELb1EE9to_doubleEv", scope: !1676, file: !733, line: 560, type: !1854, isLocal: false, isDefinition: false, scopeLine: 560, flags: DIFlagPrototyped, isOptimized: false)
!1854 = !DISubroutineType(types: !1855)
!1855 = !{!143, !1694}
!1856 = !DISubprogram(name: "length", linkageName: "_ZNVK11ap_int_baseILi14ELb1EE6lengthEv", scope: !1676, file: !733, line: 584, type: !1857, isLocal: false, isDefinition: false, scopeLine: 584, flags: DIFlagPrototyped, isOptimized: false)
!1857 = !DISubroutineType(types: !1858)
!1858 = !{!32, !1859}
!1859 = !DIDerivedType(tag: DW_TAG_pointer_type, baseType: !1764, size: 64, flags: DIFlagArtificial | DIFlagObjectPointer)
!1860 = !DISubprogram(name: "iszero", linkageName: "_ZNK11ap_int_baseILi14ELb1EE6iszeroEv", scope: !1676, file: !733, line: 587, type: !1814, isLocal: false, isDefinition: false, scopeLine: 587, flags: DIFlagPrototyped, isOptimized: false)
!1861 = !DISubprogram(name: "is_zero", linkageName: "_ZNK11ap_int_baseILi14ELb1EE7is_zeroEv", scope: !1676, file: !733, line: 590, type: !1814, isLocal: false, isDefinition: false, scopeLine: 590, flags: DIFlagPrototyped, isOptimized: false)
!1862 = !DISubprogram(name: "sign", linkageName: "_ZNK11ap_int_baseILi14ELb1EE4signEv", scope: !1676, file: !733, line: 593, type: !1814, isLocal: false, isDefinition: false, scopeLine: 593, flags: DIFlagPrototyped, isOptimized: false)
!1863 = !DISubprogram(name: "clear", linkageName: "_ZN11ap_int_baseILi14ELb1EE5clearEi", scope: !1676, file: !733, line: 602, type: !1864, isLocal: false, isDefinition: false, scopeLine: 602, flags: DIFlagPrototyped, isOptimized: false)
!1864 = !DISubroutineType(types: !1865)
!1865 = !{null, !1699, !32}
!1866 = !DISubprogram(name: "invert", linkageName: "_ZN11ap_int_baseILi14ELb1EE6invertEi", scope: !1676, file: !733, line: 608, type: !1864, isLocal: false, isDefinition: false, scopeLine: 608, flags: DIFlagPrototyped, isOptimized: false)
!1867 = !DISubprogram(name: "test", linkageName: "_ZNK11ap_int_baseILi14ELb1EE4testEi", scope: !1676, file: !733, line: 617, type: !1868, isLocal: false, isDefinition: false, scopeLine: 617, flags: DIFlagPrototyped, isOptimized: false)
!1868 = !DISubroutineType(types: !1869)
!1869 = !{!34, !1694, !32}
!1870 = !DISubprogram(name: "get", linkageName: "_ZN11ap_int_baseILi14ELb1EE3getEv", scope: !1676, file: !733, line: 623, type: !1871, isLocal: false, isDefinition: false, scopeLine: 623, flags: DIFlagPrototyped, isOptimized: false)
!1871 = !DISubroutineType(types: !1872)
!1872 = !{!1769, !1699}
!1873 = !DISubprogram(name: "set", linkageName: "_ZN11ap_int_baseILi14ELb1EE3setEi", scope: !1676, file: !733, line: 626, type: !1864, isLocal: false, isDefinition: false, scopeLine: 626, flags: DIFlagPrototyped, isOptimized: false)
!1874 = !DISubprogram(name: "set", linkageName: "_ZN11ap_int_baseILi14ELb1EE3setEib", scope: !1676, file: !733, line: 632, type: !1875, isLocal: false, isDefinition: false, scopeLine: 632, flags: DIFlagPrototyped, isOptimized: false)
!1875 = !DISubroutineType(types: !1876)
!1876 = !{null, !1699, !32, !34}
!1877 = !DISubprogram(name: "lrotate", linkageName: "_ZN11ap_int_baseILi14ELb1EE7lrotateEi", scope: !1676, file: !733, line: 639, type: !1792, isLocal: false, isDefinition: false, scopeLine: 639, flags: DIFlagPrototyped, isOptimized: false)
!1878 = !DISubprogram(name: "rrotate", linkageName: "_ZN11ap_int_baseILi14ELb1EE7rrotateEi", scope: !1676, file: !733, line: 654, type: !1792, isLocal: false, isDefinition: false, scopeLine: 654, flags: DIFlagPrototyped, isOptimized: false)
!1879 = !DISubprogram(name: "reverse", linkageName: "_ZN11ap_int_baseILi14ELb1EE7reverseEv", scope: !1676, file: !733, line: 669, type: !1871, isLocal: false, isDefinition: false, scopeLine: 669, flags: DIFlagPrototyped, isOptimized: false)
!1880 = !DISubprogram(name: "set_bit", linkageName: "_ZN11ap_int_baseILi14ELb1EE7set_bitEib", scope: !1676, file: !733, line: 675, type: !1875, isLocal: false, isDefinition: false, scopeLine: 675, flags: DIFlagPrototyped, isOptimized: false)
!1881 = !DISubprogram(name: "get_bit", linkageName: "_ZNK11ap_int_baseILi14ELb1EE7get_bitEi", scope: !1676, file: !733, line: 680, type: !1868, isLocal: false, isDefinition: false, scopeLine: 680, flags: DIFlagPrototyped, isOptimized: false)
!1882 = !DISubprogram(name: "b_not", linkageName: "_ZN11ap_int_baseILi14ELb1EE5b_notEv", scope: !1676, file: !733, line: 685, type: !1697, isLocal: false, isDefinition: false, scopeLine: 685, flags: DIFlagPrototyped, isOptimized: false)
!1883 = !DISubprogram(name: "checkOverflowCsim", linkageName: "_ZNK11ap_int_baseILi14ELb1EE17checkOverflowCsimEibb", scope: !1676, file: !733, line: 759, type: !1884, isLocal: false, isDefinition: false, scopeLine: 759, flags: DIFlagPrototyped, isOptimized: false)
!1884 = !DISubroutineType(types: !1885)
!1885 = !{!34, !1694, !32, !34, !34}
!1886 = !DISubprogram(name: "operator++", linkageName: "_ZN11ap_int_baseILi14ELb1EEppEv", scope: !1676, file: !733, line: 864, type: !1871, isLocal: false, isDefinition: false, scopeLine: 864, flags: DIFlagPrototyped, isOptimized: false)
!1887 = !DISubprogram(name: "operator--", linkageName: "_ZN11ap_int_baseILi14ELb1EEmmEv", scope: !1676, file: !733, line: 868, type: !1871, isLocal: false, isDefinition: false, scopeLine: 868, flags: DIFlagPrototyped, isOptimized: false)
!1888 = !DISubprogram(name: "operator++", linkageName: "_ZN11ap_int_baseILi14ELb1EEppEi", scope: !1676, file: !733, line: 876, type: !1889, isLocal: false, isDefinition: false, scopeLine: 876, flags: DIFlagPrototyped, isOptimized: false)
!1889 = !DISubroutineType(types: !1890)
!1890 = !{!1891, !1699, !32}
!1891 = !DIDerivedType(tag: DW_TAG_const_type, baseType: !1892)
!1892 = !DIDerivedType(tag: DW_TAG_typedef, name: "arg1", scope: !1893, file: !733, line: 167, baseType: !1669)
!1893 = distinct !DICompositeType(tag: DW_TAG_structure_type, name: "RType<14, true>", scope: !1676, file: !733, line: 134, size: 8, flags: DIFlagTypePassByValue, elements: !4, templateParams: !1671, identifier: "_ZTSN11ap_int_baseILi14ELb1EE5RTypeILi14ELb1EEE")
!1894 = !DISubprogram(name: "operator--", linkageName: "_ZN11ap_int_baseILi14ELb1EEmmEi", scope: !1676, file: !733, line: 881, type: !1889, isLocal: false, isDefinition: false, scopeLine: 881, flags: DIFlagPrototyped, isOptimized: false)
!1895 = !DISubprogram(name: "operator+", linkageName: "_ZNK11ap_int_baseILi14ELb1EEpsEv", scope: !1676, file: !733, line: 890, type: !1896, isLocal: false, isDefinition: false, scopeLine: 890, flags: DIFlagPrototyped, isOptimized: false)
!1896 = !DISubroutineType(types: !1897)
!1897 = !{!1892, !1694}
!1898 = !DISubprogram(name: "operator-", linkageName: "_ZNK11ap_int_baseILi14ELb1EEngEv", scope: !1676, file: !733, line: 893, type: !1899, isLocal: false, isDefinition: false, scopeLine: 893, flags: DIFlagPrototyped, isOptimized: false)
!1899 = !DISubroutineType(types: !1900)
!1900 = !{!1901, !1694}
!1901 = !DIDerivedType(tag: DW_TAG_typedef, name: "minus", scope: !1902, file: !733, line: 163, baseType: !1903)
!1902 = distinct !DICompositeType(tag: DW_TAG_structure_type, name: "RType<1, false>", scope: !1676, file: !733, line: 134, size: 8, flags: DIFlagTypePassByValue, elements: !4, templateParams: !488, identifier: "_ZTSN11ap_int_baseILi14ELb1EE5RTypeILi1ELb0EEE")
!1903 = !DIDerivedType(tag: DW_TAG_typedef, name: "type", scope: !1904, file: !733, line: 103, baseType: !1907)
!1904 = distinct !DICompositeType(tag: DW_TAG_structure_type, name: "_ap_int_factory<15, true>", file: !733, line: 103, size: 8, flags: DIFlagTypePassByValue, elements: !4, templateParams: !1905, identifier: "_ZTS15_ap_int_factoryILi15ELb1EE")
!1905 = !{!1906, !388}
!1906 = !DITemplateValueParameter(name: "_AP_W2", type: !32, value: i32 15)
!1907 = distinct !DICompositeType(tag: DW_TAG_structure_type, name: "ap_int<15>", file: !436, line: 137, flags: DIFlagFwdDecl, identifier: "_ZTS6ap_intILi15EE")
!1908 = !DISubprogram(name: "operator!", linkageName: "_ZNK11ap_int_baseILi14ELb1EEntEv", scope: !1676, file: !733, line: 900, type: !1814, isLocal: false, isDefinition: false, scopeLine: 900, flags: DIFlagPrototyped, isOptimized: false)
!1909 = !DISubprogram(name: "operator~", linkageName: "_ZNK11ap_int_baseILi14ELb1EEcoEv", scope: !1676, file: !733, line: 906, type: !1896, isLocal: false, isDefinition: false, scopeLine: 906, flags: DIFlagPrototyped, isOptimized: false)
!1910 = !DISubprogram(name: "range", linkageName: "_ZN11ap_int_baseILi14ELb1EE5rangeEii", scope: !1676, file: !733, line: 1044, type: !1911, isLocal: false, isDefinition: false, scopeLine: 1044, flags: DIFlagPrototyped, isOptimized: false)
!1911 = !DISubroutineType(types: !1912)
!1912 = !{!1913, !1699, !32, !32}
!1913 = distinct !DICompositeType(tag: DW_TAG_structure_type, name: "ap_range_ref<14, true>", file: !436, line: 143, flags: DIFlagFwdDecl, identifier: "_ZTS12ap_range_refILi14ELb1EE")
!1914 = !DISubprogram(name: "range", linkageName: "_ZNK11ap_int_baseILi14ELb1EE5rangeEii", scope: !1676, file: !733, line: 1051, type: !1915, isLocal: false, isDefinition: false, scopeLine: 1051, flags: DIFlagPrototyped, isOptimized: false)
!1915 = !DISubroutineType(types: !1916)
!1916 = !{!1913, !1694, !32, !32}
!1917 = !DISubprogram(name: "range", linkageName: "_ZN11ap_int_baseILi14ELb1EE5rangeEv", scope: !1676, file: !733, line: 1075, type: !1918, isLocal: false, isDefinition: false, scopeLine: 1075, flags: DIFlagPrototyped, isOptimized: false)
!1918 = !DISubroutineType(types: !1919)
!1919 = !{!1913, !1699}
!1920 = !DISubprogram(name: "range", linkageName: "_ZNK11ap_int_baseILi14ELb1EE5rangeEv", scope: !1676, file: !733, line: 1079, type: !1921, isLocal: false, isDefinition: false, scopeLine: 1079, flags: DIFlagPrototyped, isOptimized: false)
!1921 = !DISubroutineType(types: !1922)
!1922 = !{!1913, !1694}
!1923 = !DISubprogram(name: "operator()", linkageName: "_ZN11ap_int_baseILi14ELb1EEclEii", scope: !1676, file: !733, line: 1083, type: !1911, isLocal: false, isDefinition: false, scopeLine: 1083, flags: DIFlagPrototyped, isOptimized: false)
!1924 = !DISubprogram(name: "operator()", linkageName: "_ZNK11ap_int_baseILi14ELb1EEclEii", scope: !1676, file: !733, line: 1087, type: !1915, isLocal: false, isDefinition: false, scopeLine: 1087, flags: DIFlagPrototyped, isOptimized: false)
!1925 = !DISubprogram(name: "operator[]", linkageName: "_ZN11ap_int_baseILi14ELb1EEixEi", scope: !1676, file: !733, line: 1125, type: !1926, isLocal: false, isDefinition: false, scopeLine: 1125, flags: DIFlagPrototyped, isOptimized: false)
!1926 = !DISubroutineType(types: !1927)
!1927 = !{!1928, !1699, !32}
!1928 = distinct !DICompositeType(tag: DW_TAG_structure_type, name: "ap_bit_ref<14, true>", file: !436, line: 146, flags: DIFlagFwdDecl, identifier: "_ZTS10ap_bit_refILi14ELb1EE")
!1929 = !DISubprogram(name: "operator[]", linkageName: "_ZNK11ap_int_baseILi14ELb1EEixEi", scope: !1676, file: !733, line: 1141, type: !1868, isLocal: false, isDefinition: false, scopeLine: 1141, flags: DIFlagPrototyped, isOptimized: false)
!1930 = !DISubprogram(name: "bit", linkageName: "_ZN11ap_int_baseILi14ELb1EE3bitEi", scope: !1676, file: !733, line: 1154, type: !1926, isLocal: false, isDefinition: false, scopeLine: 1154, flags: DIFlagPrototyped, isOptimized: false)
!1931 = !DISubprogram(name: "bit", linkageName: "_ZNK11ap_int_baseILi14ELb1EE3bitEi", scope: !1676, file: !733, line: 1169, type: !1868, isLocal: false, isDefinition: false, scopeLine: 1169, flags: DIFlagPrototyped, isOptimized: false)
!1932 = !DISubprogram(name: "countLeadingZeros", linkageName: "_ZNK11ap_int_baseILi14ELb1EE17countLeadingZerosEv", scope: !1676, file: !733, line: 1192, type: !1692, isLocal: false, isDefinition: false, scopeLine: 1192, flags: DIFlagPrototyped, isOptimized: false)
!1933 = !DISubprogram(name: "and_reduce", linkageName: "_ZNK11ap_int_baseILi14ELb1EE10and_reduceEv", scope: !1676, file: !733, line: 1412, type: !1814, isLocal: false, isDefinition: false, scopeLine: 1412, flags: DIFlagPrototyped, isOptimized: false)
!1934 = !DISubprogram(name: "nand_reduce", linkageName: "_ZNK11ap_int_baseILi14ELb1EE11nand_reduceEv", scope: !1676, file: !733, line: 1413, type: !1814, isLocal: false, isDefinition: false, scopeLine: 1413, flags: DIFlagPrototyped, isOptimized: false)
!1935 = !DISubprogram(name: "or_reduce", linkageName: "_ZNK11ap_int_baseILi14ELb1EE9or_reduceEv", scope: !1676, file: !733, line: 1414, type: !1814, isLocal: false, isDefinition: false, scopeLine: 1414, flags: DIFlagPrototyped, isOptimized: false)
!1936 = !DISubprogram(name: "nor_reduce", linkageName: "_ZNK11ap_int_baseILi14ELb1EE10nor_reduceEv", scope: !1676, file: !733, line: 1415, type: !1814, isLocal: false, isDefinition: false, scopeLine: 1415, flags: DIFlagPrototyped, isOptimized: false)
!1937 = !DISubprogram(name: "xor_reduce", linkageName: "_ZNK11ap_int_baseILi14ELb1EE10xor_reduceEv", scope: !1676, file: !733, line: 1416, type: !1814, isLocal: false, isDefinition: false, scopeLine: 1416, flags: DIFlagPrototyped, isOptimized: false)
!1938 = !DISubprogram(name: "xnor_reduce", linkageName: "_ZNK11ap_int_baseILi14ELb1EE11xnor_reduceEv", scope: !1676, file: !733, line: 1417, type: !1814, isLocal: false, isDefinition: false, scopeLine: 1417, flags: DIFlagPrototyped, isOptimized: false)
!1939 = !DISubprogram(name: "to_string", linkageName: "_ZNK11ap_int_baseILi14ELb1EE9to_stringEab", scope: !1676, file: !733, line: 1432, type: !1940, isLocal: false, isDefinition: false, scopeLine: 1432, flags: DIFlagPrototyped, isOptimized: false)
!1940 = !DISubroutineType(types: !1941)
!1941 = !{!1942, !1694, !84, !34}
!1942 = !DIDerivedType(tag: DW_TAG_pointer_type, baseType: !80, size: 64)
!1943 = !{!1944, !33}
!1944 = !DITemplateValueParameter(name: "_AP_W", type: !32, value: i32 14)
!1945 = !DISubprogram(name: "ap_int", scope: !1673, file: !392, line: 20, type: !1946, isLocal: false, isDefinition: false, scopeLine: 20, flags: DIFlagPrototyped, isOptimized: false)
!1946 = !DISubroutineType(types: !1947)
!1947 = !{null, !1948}
!1948 = !DIDerivedType(tag: DW_TAG_pointer_type, baseType: !1673, size: 64, flags: DIFlagArtificial | DIFlagObjectPointer)
!1949 = !DISubprogram(name: "ap_int", scope: !1673, file: !392, line: 48, type: !1950, isLocal: false, isDefinition: false, scopeLine: 48, flags: DIFlagPrototyped, isOptimized: false)
!1950 = !DISubroutineType(types: !1951)
!1951 = !{null, !1948, !1952, !34}
!1952 = !DIBasicType(name: "uint14", size: 14, encoding: DW_ATE_unsigned)
!1953 = !DISubprogram(name: "ap_int", scope: !1673, file: !392, line: 116, type: !1954, isLocal: false, isDefinition: false, scopeLine: 116, flags: DIFlagPrototyped, isOptimized: false)
!1954 = !DISubroutineType(types: !1955)
!1955 = !{null, !1948, !34}
!1956 = !DISubprogram(name: "ap_int", scope: !1673, file: !392, line: 117, type: !1957, isLocal: false, isDefinition: false, scopeLine: 117, flags: DIFlagPrototyped, isOptimized: false)
!1957 = !DISubroutineType(types: !1958)
!1958 = !{null, !1948, !80}
!1959 = !DISubprogram(name: "ap_int", scope: !1673, file: !392, line: 118, type: !1960, isLocal: false, isDefinition: false, scopeLine: 118, flags: DIFlagPrototyped, isOptimized: false)
!1960 = !DISubroutineType(types: !1961)
!1961 = !{null, !1948, !84}
!1962 = !DISubprogram(name: "ap_int", scope: !1673, file: !392, line: 119, type: !1963, isLocal: false, isDefinition: false, scopeLine: 119, flags: DIFlagPrototyped, isOptimized: false)
!1963 = !DISubroutineType(types: !1964)
!1964 = !{null, !1948, !100}
!1965 = !DISubprogram(name: "ap_int", scope: !1673, file: !392, line: 120, type: !1966, isLocal: false, isDefinition: false, scopeLine: 120, flags: DIFlagPrototyped, isOptimized: false)
!1966 = !DISubroutineType(types: !1967)
!1967 = !{null, !1948, !25}
!1968 = !DISubprogram(name: "ap_int", scope: !1673, file: !392, line: 121, type: !1969, isLocal: false, isDefinition: false, scopeLine: 121, flags: DIFlagPrototyped, isOptimized: false)
!1969 = !DISubroutineType(types: !1970)
!1970 = !{null, !1948, !109}
!1971 = !DISubprogram(name: "ap_int", scope: !1673, file: !392, line: 122, type: !1972, isLocal: false, isDefinition: false, scopeLine: 122, flags: DIFlagPrototyped, isOptimized: false)
!1972 = !DISubroutineType(types: !1973)
!1973 = !{null, !1948, !32}
!1974 = !DISubprogram(name: "ap_int", scope: !1673, file: !392, line: 123, type: !1975, isLocal: false, isDefinition: false, scopeLine: 123, flags: DIFlagPrototyped, isOptimized: false)
!1975 = !DISubroutineType(types: !1976)
!1976 = !{null, !1948, !117}
!1977 = !DISubprogram(name: "ap_int", scope: !1673, file: !392, line: 124, type: !1978, isLocal: false, isDefinition: false, scopeLine: 124, flags: DIFlagPrototyped, isOptimized: false)
!1978 = !DISubroutineType(types: !1979)
!1979 = !{null, !1948, !122}
!1980 = !DISubprogram(name: "ap_int", scope: !1673, file: !392, line: 125, type: !1981, isLocal: false, isDefinition: false, scopeLine: 125, flags: DIFlagPrototyped, isOptimized: false)
!1981 = !DISubroutineType(types: !1982)
!1982 = !{null, !1948, !127}
!1983 = !DISubprogram(name: "ap_int", scope: !1673, file: !392, line: 126, type: !1984, isLocal: false, isDefinition: false, scopeLine: 126, flags: DIFlagPrototyped, isOptimized: false)
!1984 = !DISubroutineType(types: !1985)
!1985 = !{null, !1948, !435}
!1986 = !DISubprogram(name: "ap_int", scope: !1673, file: !392, line: 127, type: !1987, isLocal: false, isDefinition: false, scopeLine: 127, flags: DIFlagPrototyped, isOptimized: false)
!1987 = !DISubroutineType(types: !1988)
!1988 = !{null, !1948, !440}
!1989 = !DISubprogram(name: "ap_int", scope: !1673, file: !392, line: 129, type: !1990, isLocal: false, isDefinition: false, scopeLine: 129, flags: DIFlagPrototyped, isOptimized: false)
!1990 = !DISubroutineType(types: !1991)
!1991 = !{null, !1948, !143}
!1992 = !DISubprogram(name: "ap_int", scope: !1673, file: !392, line: 130, type: !1993, isLocal: false, isDefinition: false, scopeLine: 130, flags: DIFlagPrototyped, isOptimized: false)
!1993 = !DISubroutineType(types: !1994)
!1994 = !{null, !1948, !147}
!1995 = !DISubprogram(name: "ap_int", scope: !1673, file: !392, line: 131, type: !1996, isLocal: false, isDefinition: false, scopeLine: 131, flags: DIFlagPrototyped, isOptimized: false)
!1996 = !DISubroutineType(types: !1997)
!1997 = !{null, !1948, !450}
!1998 = !DISubprogram(name: "ap_int", scope: !1673, file: !392, line: 134, type: !1999, isLocal: false, isDefinition: false, scopeLine: 134, flags: DIFlagPrototyped, isOptimized: false)
!1999 = !DISubroutineType(types: !2000)
!2000 = !{null, !1948, !78}
!2001 = !DISubprogram(name: "ap_int", scope: !1673, file: !392, line: 136, type: !2002, isLocal: false, isDefinition: false, scopeLine: 136, flags: DIFlagPrototyped, isOptimized: false)
!2002 = !DISubroutineType(types: !2003)
!2003 = !{null, !1948, !78, !84}
!2004 = !DISubprogram(name: "operator=", linkageName: "_ZN6ap_intILi14EEaSERKS0_", scope: !1673, file: !392, line: 141, type: !2005, isLocal: false, isDefinition: false, scopeLine: 141, flags: DIFlagPrototyped, isOptimized: false)
!2005 = !DISubroutineType(types: !2006)
!2006 = !{!2007, !1948, !2008}
!2007 = !DIDerivedType(tag: DW_TAG_reference_type, baseType: !1673, size: 64)
!2008 = !DIDerivedType(tag: DW_TAG_reference_type, baseType: !2009, size: 64)
!2009 = !DIDerivedType(tag: DW_TAG_const_type, baseType: !1673)
